Certificate:
    Data:
        Version: 3 (0x2)
        Serial Number: 6 (0x6)
    Signature Algorithm: sha1WithRSAEncryption
        Issuer: C=AU, ST=Some-State, O=Internet Widgits Pty Ltd
        Validity
            Not Before: Jun  6 17:23:19 2014 GMT
            Not After : Jun  3 17:23:19 2024 GMT
        Subject: C=AU, ST=Some-State, O=Internet Widgits Pty Ltd, CN=ca.foobar.com
        Subject Public Key Info:
            Public Key Algorithm: rsaEncryption
                Public-Key: (1024 bit)
                Modulus:
                    00:e4:13:e7:f0:97:87:62:5f:e2:cc:79:b2:55:77:
                    d7:c2:b8:b9:d3:51:b9:72:6f:15:13:b5:94:e7:54:
                    8e:c1:18:37:6c:d8:0b:90:5a:a4:5d:a5:0e:42:74:
                    4e:7e:ad:e9:34:37:a7:6d:e5:30:c6:41:7b:f8:85:
                    e9:61:84:cc:d8:80:f2:7f:af:6e:22:bc:2c:ce:27:
                    1f:4a:fd:36:bc:1c:9d:f5:5f:e9:b4:96:0f:88:31:
                    8f:a7:6d:38:54:a8:7e:2c:1c:1c:72:8c:2f:0b:0a:
                    71:6f:d2:d5:c6:ac:e9:e0:e9:7e:72:46:43:a0:00:
                    60:33:62:d7:7a:ff:1e:7f:77
                Exponent: 65537 (0x10001)
        X509v3 extensions:
            X509v3 Basic Constraints: 
                CA:TRUE
            X509v3 Key Usage: 
                Digital Signature, Non Repudiation, Key Encipherment
            X509v3 Subject Key Identifier: 
                4A:F7:E8:EB:57:1B:AB:49:41:23:E8:02:64:23:83:23:17:0E:CA:05
            X509v3 Authority Key Identifier: 
                keyid:9F:73:10:61:42:11:4D:82:CA:F0:FF:37:E9:17:C3:20:C8:DB:1E:4A

    Signature Algorithm: sha1WithRSAEncryption
         45:b6:bc:bb:49:8b:12:ce:07:14:68:4f:d1:d1:e5:60:a6:9b:
         9a:b0:8e:40:d0:9c:9d:63:3d:5e:ef:5c:1c:80:4b:2d:ba:45:
         d5:46:2a:08:06:d1:4f:ce:20:7c:3f:04:c2:69:fe:29:6e:be:
         e9:27:fe:7a:7a:6c:75:7f:b1:8f:c8:97:52:85:c3:35:53:b4:
         e8:69:f7:ce:fa:a1:48:aa:36:41:37:c3:7d:9f:3f:dc:b3:dd:
         7e:ba:73:b5:94:89:6c:b1:b1:15:c7:48:d1:2f:a7:28:d5:6d:
         c3:de:a2:93:da:80:d5:8b:5d:0f:10:47:36:70:a2:10:38:3e:
         57:8e
-----BEGIN CERTIFICATE-----
MIICdTCCAd6gAwIBAgIBBjANBgkqhkiG9w0BAQUFADBFMQswCQYDVQQGEwJBVTET
MBEGA1UECAwKU29tZS1TdGF0ZTEhMB8GA1UECgwYSW50ZXJuZXQgV2lkZ2l0cyBQ
dHkgTHRkMB4XDTE0MDYwNjE3MjMxOVoXDTI0MDYwMzE3MjMxOVowXTELMAkGA1UE
BhMCQVUxEzARBgNVBAgMClNvbWUtU3RhdGUxITAfBgNVBAoMGEludGVybmV0IFdp
ZGdpdHMgUHR5IEx0ZDEWMBQGA1UEAwwNY2EuZm9vYmFyLmNvbTCBnzANBgkqhkiG
9w0BAQEFAAOBjQAwgYkCgYEA5BPn8JeHYl/izHmyVXfXwri501G5cm8VE7WU51SO
wRg3bNgLkFqkXaUOQnROfq3pNDenbeUwxkF7+IXpYYTM2IDyf69uIrwszicfSv02
vByd9V/ptJYPiDGPp204VKh+LBwccowvCwpxb9LVxqzp4Ol+ckZDoABgM2LXev8e
f3cCAwEAAaNdMFswDAYDVR0TBAUwAwEB/zALBgNVHQ8EBAMCBeAwHQYDVR0OBBYE
FEr36OtXG6tJQSPoAmQjgyMXDsoFMB8GA1UdIwQYMBaAFJ9zEGFCEU2CyvD/N+kX
wyDI2x5KMA0GCSqGSIb3DQEBBQUAA4GBAEW2vLtJixLOBxRoT9HR5WCmm5qwjkDQ
nJ1jPV7vXByASy26RdVGKggG0U/OIHw/BMJp/iluvukn/np6bHV/sY/Il1KFwzVT
tOhp9876oUiqNkE3w32fP9yz3X66c7WUiWyxsRXHSNEvpyjVbcPeopPagNWLXQ8Q
RzZwohA4PleO
-----END CERTIFICATE-----
