Certificate:
    Data:
        Version: 3 (0x2)
        Serial Number: 14 (0xe)
    Signature Algorithm: sha1WithRSAEncryption
        Issuer: C=AU, ST=Some-State, O=Internet Widgits Pty Ltd
        Validity
            Not Before: Jun  7 14:36:13 2014 GMT
            Not After : Jun  4 14:36:13 2024 GMT
        Subject: C=AU, ST=Some-State, O=Internet Widgits Pty Ltd, CN=ext.foobar.com
        Subject Public Key Info:
            Public Key Algorithm: rsaEncryption
                Public-Key: (1024 bit)
                Modulus:
                    00:e4:13:e7:f0:97:87:62:5f:e2:cc:79:b2:55:77:
                    d7:c2:b8:b9:d3:51:b9:72:6f:15:13:b5:94:e7:54:
                    8e:c1:18:37:6c:d8:0b:90:5a:a4:5d:a5:0e:42:74:
                    4e:7e:ad:e9:34:37:a7:6d:e5:30:c6:41:7b:f8:85:
                    e9:61:84:cc:d8:80:f2:7f:af:6e:22:bc:2c:ce:27:
                    1f:4a:fd:36:bc:1c:9d:f5:5f:e9:b4:96:0f:88:31:
                    8f:a7:6d:38:54:a8:7e:2c:1c:1c:72:8c:2f:0b:0a:
                    71:6f:d2:d5:c6:ac:e9:e0:e9:7e:72:46:43:a0:00:
                    60:33:62:d7:7a:ff:1e:7f:77
                Exponent: 65537 (0x10001)
        X509v3 extensions:
            X509v3 Basic Constraints: critical
                CA:FALSE
            X509v3 Key Usage: 
                Digital Signature, Non Repudiation, Key Encipherment
            X509v3 Extended Key Usage: 
                Time Stamping
            X509v3 Subject Key Identifier: 
                4A:F7:E8:EB:57:1B:AB:49:41:23:E8:02:64:23:83:23:17:0E:CA:05
            X509v3 Authority Key Identifier: 
                keyid:9F:73:10:61:42:11:4D:82:CA:F0:FF:37:E9:17:C3:20:C8:DB:1E:4A

    Signature Algorithm: sha1WithRSAEncryption
         aa:94:49:20:a4:23:a8:ff:c1:0f:0c:18:e4:23:c9:04:ed:b6:
         2f:f5:6f:8a:89:4b:37:ca:18:e7:8b:27:d9:7a:fa:9b:fe:d9:
         5f:f1:00:2b:bc:f7:cd:32:b8:00:8b:37:4d:c1:6f:20:08:b7:
         68:76:fe:39:d8:cd:e1:3c:cb:fe:c6:e8:6e:e2:39:08:d9:fa:
         47:01:82:ab:84:56:fa:48:a8:f6:dc:a5:dd:18:34:35:d4:60:
         b0:50:22:3a:da:38:64:bd:9b:c5:55:e2:75:41:82:13:bd:5f:
         b8:36:dc:21:d6:1c:a1:63:c0:c6:2f:c5:4c:4f:18:6d:6e:36:
         3b:5b
-----BEGIN CERTIFICATE-----
MIICizCCAfSgAwIBAgIBDjANBgkqhkiG9w0BAQUFADBFMQswCQYDVQQGEwJBVTET
MBEGA1UECAwKU29tZS1TdGF0ZTEhMB8GA1UECgwYSW50ZXJuZXQgV2lkZ2l0cyBQ
dHkgTHRkMB4XDTE0MDYwNzE0MzYxM1oXDTI0MDYwNDE0MzYxM1owXjELMAkGA1UE
BhMCQVUxEzARBgNVBAgMClNvbWUtU3RhdGUxITAfBgNVBAoMGEludGVybmV0IFdp
ZGdpdHMgUHR5IEx0ZDEXMBUGA1UEAwwOZXh0LmZvb2Jhci5jb20wgZ8wDQYJKoZI
hvcNAQEBBQADgY0AMIGJAoGBAOQT5/CXh2Jf4sx5slV318K4udNRuXJvFRO1lOdU
jsEYN2zYC5BapF2lDkJ0Tn6t6TQ3p23lMMZBe/iF6WGEzNiA8n+vbiK8LM4nH0r9
NrwcnfVf6bSWD4gxj6dtOFSofiwcHHKMLwsKcW/S1cas6eDpfnJGQ6AAYDNi13r/
Hn93AgMBAAGjcjBwMAwGA1UdEwEB/wQCMAAwCwYDVR0PBAQDAgXgMBMGA1UdJQQM
MAoGCCsGAQUFBwMIMB0GA1UdDgQWBBRK9+jrVxurSUEj6AJkI4MjFw7KBTAfBgNV
HSMEGDAWgBSfcxBhQhFNgsrw/zfpF8MgyNseSjANBgkqhkiG9w0BAQUFAAOBgQCq
lEkgpCOo/8EPDBjkI8kE7bYv9W+KiUs3yhjniyfZevqb/tlf8QArvPfNMrgAizdN
wW8gCLdodv452M3hPMv+xuhu4jkI2fpHAYKrhFb6SKj23KXdGDQ11GCwUCI62jhk
vZvFVeJ1QYITvV+4Ntwh1hyhY8DGL8VMTxhtbjY7Ww==
-----END CERTIFICATE-----
