Certificate:
    Data:
        Version: 3 (0x2)
        Serial Number: 7 (0x7)
    Signature Algorithm: sha1WithRSAEncryption
        Issuer: C=AU, ST=Some-State, O=Internet Widgits Pty Ltd
        Validity
            Not Before: Jun  6 17:24:10 2014 GMT
            Not After : Jun  3 17:24:10 2024 GMT
        Subject: C=AU, ST=Some-State, O=Internet Widgits Pty Ltd, CN=key.foobar.com
        Subject Public Key Info:
            Public Key Algorithm: rsaEncryption
                Public-Key: (1024 bit)
                Modulus:
                    00:e4:13:e7:f0:97:87:62:5f:e2:cc:79:b2:55:77:
                    d7:c2:b8:b9:d3:51:b9:72:6f:15:13:b5:94:e7:54:
                    8e:c1:18:37:6c:d8:0b:90:5a:a4:5d:a5:0e:42:74:
                    4e:7e:ad:e9:34:37:a7:6d:e5:30:c6:41:7b:f8:85:
                    e9:61:84:cc:d8:80:f2:7f:af:6e:22:bc:2c:ce:27:
                    1f:4a:fd:36:bc:1c:9d:f5:5f:e9:b4:96:0f:88:31:
                    8f:a7:6d:38:54:a8:7e:2c:1c:1c:72:8c:2f:0b:0a:
                    71:6f:d2:d5:c6:ac:e9:e0:e9:7e:72:46:43:a0:00:
                    60:33:62:d7:7a:ff:1e:7f:77
                Exponent: 65537 (0x10001)
        X509v3 extensions:
            X509v3 Basic Constraints: 
                CA:FALSE
            X509v3 Key Usage: 
                Non Repudiation
            X509v3 Subject Key Identifier: 
                4A:F7:E8:EB:57:1B:AB:49:41:23:E8:02:64:23:83:23:17:0E:CA:05
            X509v3 Authority Key Identifier: 
                keyid:9F:73:10:61:42:11:4D:82:CA:F0:FF:37:E9:17:C3:20:C8:DB:1E:4A

    Signature Algorithm: sha1WithRSAEncryption
         7b:67:67:33:93:3a:16:9b:1b:93:71:3c:0b:90:0c:ba:37:cd:
         53:c7:84:94:6b:c8:ea:6c:3a:c8:da:70:e8:1f:ec:ab:9e:fe:
         4f:f4:69:8d:e4:c0:82:fc:48:9e:f3:a3:a0:91:d7:ef:a0:ac:
         80:38:f5:84:b9:5f:29:9a:57:9c:e3:be:ba:6e:3a:fa:59:89:
         cc:c2:36:5f:5a:c0:83:3d:48:3c:3f:51:55:f3:ae:2e:64:40:
         06:8d:de:87:a0:08:33:4f:85:f3:ec:92:f2:eb:a8:0a:5b:94:
         56:a6:23:9a:5f:02:4c:01:9a:d7:f3:5c:67:2c:81:4a:2c:ca:
         ae:14
-----BEGIN CERTIFICATE-----
MIICczCCAdygAwIBAgIBBzANBgkqhkiG9w0BAQUFADBFMQswCQYDVQQGEwJBVTET
MBEGA1UECAwKU29tZS1TdGF0ZTEhMB8GA1UECgwYSW50ZXJuZXQgV2lkZ2l0cyBQ
dHkgTHRkMB4XDTE0MDYwNjE3MjQxMFoXDTI0MDYwMzE3MjQxMFowXjELMAkGA1UE
BhMCQVUxEzARBgNVBAgMClNvbWUtU3RhdGUxITAfBgNVBAoMGEludGVybmV0IFdp
ZGdpdHMgUHR5IEx0ZDEXMBUGA1UEAwwOa2V5LmZvb2Jhci5jb20wgZ8wDQYJKoZI
hvcNAQEBBQADgY0AMIGJAoGBAOQT5/CXh2Jf4sx5slV318K4udNRuXJvFRO1lOdU
jsEYN2zYC5BapF2lDkJ0Tn6t6TQ3p23lMMZBe/iF6WGEzNiA8n+vbiK8LM4nH0r9
NrwcnfVf6bSWD4gxj6dtOFSofiwcHHKMLwsKcW/S1cas6eDpfnJGQ6AAYDNi13r/
Hn93AgMBAAGjWjBYMAkGA1UdEwQCMAAwCwYDVR0PBAQDAgZAMB0GA1UdDgQWBBRK
9+jrVxurSUEj6AJkI4MjFw7KBTAfBgNVHSMEGDAWgBSfcxBhQhFNgsrw/zfpF8Mg
yNseSjANBgkqhkiG9w0BAQUFAAOBgQB7Z2czkzoWmxuTcTwLkAy6N81Tx4SUa8jq
bDrI2nDoH+yrnv5P9GmN5MCC/Eie86OgkdfvoKyAOPWEuV8pmlec4766bjr6WYnM
wjZfWsCDPUg8P1FV864uZEAGjd6HoAgzT4Xz7JLy66gKW5RWpiOaXwJMAZrX81xn
LIFKLMquFA==
-----END CERTIFICATE-----
