Certificate:
    Data:
        Version: 3 (0x2)
        Serial Number: 5 (0x5)
    Signature Algorithm: sha1WithRSAEncryption
        Issuer: C=AU, ST=Some-State, O=Internet Widgits Pty Ltd
        Validity
            Not Before: Jun  6 17:21:48 2014 GMT
            Not After : Jun  3 17:21:48 2024 GMT
        Subject: C=AU, ST=Some-State, O=Internet Widgits Pty Ltd, CN=www.foobar.com
        Subject Public Key Info:
            Public Key Algorithm: rsaEncryption
                Public-Key: (1024 bit)
                Modulus:
                    00:e4:13:e7:f0:97:87:62:5f:e2:cc:79:b2:55:77:
                    d7:c2:b8:b9:d3:51:b9:72:6f:15:13:b5:94:e7:54:
                    8e:c1:18:37:6c:d8:0b:90:5a:a4:5d:a5:0e:42:74:
                    4e:7e:ad:e9:34:37:a7:6d:e5:30:c6:41:7b:f8:85:
                    e9:61:84:cc:d8:80:f2:7f:af:6e:22:bc:2c:ce:27:
                    1f:4a:fd:36:bc:1c:9d:f5:5f:e9:b4:96:0f:88:31:
                    8f:a7:6d:38:54:a8:7e:2c:1c:1c:72:8c:2f:0b:0a:
                    71:6f:d2:d5:c6:ac:e9:e0:e9:7e:72:46:43:a0:00:
                    60:33:62:d7:7a:ff:1e:7f:77
                Exponent: 65537 (0x10001)
        X509v3 extensions:
            X509v3 Basic Constraints: 
                CA:FALSE
            X509v3 Key Usage: 
                Digital Signature, Non Repudiation, Key Encipherment
            X509v3 Subject Key Identifier: 
                4A:F7:E8:EB:57:1B:AB:49:41:23:E8:02:64:23:83:23:17:0E:CA:05
            X509v3 Authority Key Identifier: 
                keyid:9F:73:10:61:42:11:4D:82:CA:F0:FF:37:E9:17:C3:20:C8:DB:1E:4A

            X509v3 Subject Alternative Name: 
                DNS:*.foobar.com
    Signature Algorithm: sha1WithRSAEncryption
         be:5b:6d:d0:3d:c6:8c:1c:9f:ae:dc:2e:ca:78:8a:55:dd:01:
         34:62:2d:9c:2b:ae:ac:68:5d:97:2d:8c:5e:f8:44:2d:89:f9:
         84:79:94:67:75:13:f1:b4:fa:f2:21:ab:e3:59:15:a4:1c:0e:
         9b:17:51:e4:b0:98:22:d9:33:c1:ef:06:88:f5:f4:78:76:92:
         c2:e0:99:ff:d7:24:ef:26:a7:33:8c:1e:7c:56:8b:b5:3a:93:
         6c:3e:00:cb:b6:db:4c:51:5d:9c:0d:94:7f:0f:79:e6:d0:dc:
         1b:18:ab:b1:74:6d:b1:72:76:fb:e8:89:00:d1:f7:99:cb:e3:
         d8:77
-----BEGIN CERTIFICATE-----
MIICjDCCAfWgAwIBAgIBBTANBgkqhkiG9w0BAQUFADBFMQswCQYDVQQGEwJBVTET
MBEGA1UECAwKU29tZS1TdGF0ZTEhMB8GA1UECgwYSW50ZXJuZXQgV2lkZ2l0cyBQ
dHkgTHRkMB4XDTE0MDYwNjE3MjE0OFoXDTI0MDYwMzE3MjE0OFowXjELMAkGA1UE
BhMCQVUxEzARBgNVBAgMClNvbWUtU3RhdGUxITAfBgNVBAoMGEludGVybmV0IFdp
ZGdpdHMgUHR5IEx0ZDEXMBUGA1UEAwwOd3d3LmZvb2Jhci5jb20wgZ8wDQYJKoZI
hvcNAQEBBQADgY0AMIGJAoGBAOQT5/CXh2Jf4sx5slV318K4udNRuXJvFRO1lOdU
jsEYN2zYC5BapF2lDkJ0Tn6t6TQ3p23lMMZBe/iF6WGEzNiA8n+vbiK8LM4nH0r9
NrwcnfVf6bSWD4gxj6dtOFSofiwcHHKMLwsKcW/S1cas6eDpfnJGQ6AAYDNi13r/
Hn93AgMBAAGjczBxMAkGA1UdEwQCMAAwCwYDVR0PBAQDAgXgMB0GA1UdDgQWBBRK
9+jrVxurSUEj6AJkI4MjFw7KBTAfBgNVHSMEGDAWgBSfcxBhQhFNgsrw/zfpF8Mg
yNseSjAXBgNVHREEEDAOggwqLmZvb2Jhci5jb20wDQYJKoZIhvcNAQEFBQADgYEA
vltt0D3GjByfrtwuyniKVd0BNGItnCuurGhdly2MXvhELYn5hHmUZ3UT8bT68iGr
41kVpBwOmxdR5LCYItkzwe8GiPX0eHaSwuCZ/9ck7yanM4wefFaLtTqTbD4Ay7bb
TFFdnA2Ufw955tDcGxirsXRtsXJ2++iJANH3mcvj2Hc=
-----END CERTIFICATE-----
