Certificate:
    Data:
        Version: 3 (0x2)
        Serial Number: 3 (0x3)
    Signature Algorithm: sha1WithRSAEncryption
        Issuer: C=AU, ST=Some-State, O=Internet Widgits Pty Ltd
        Validity
            Not Before: Jun  6 17:20:25 2014 GMT
            Not After : Jun  3 17:20:25 2024 GMT
        Subject: C=AU, ST=Some-State, O=Internet Widgits Pty Ltd, CN=foobar.com
        Subject Public Key Info:
            Public Key Algorithm: rsaEncryption
                Public-Key: (1024 bit)
                Modulus:
                    00:e4:13:e7:f0:97:87:62:5f:e2:cc:79:b2:55:77:
                    d7:c2:b8:b9:d3:51:b9:72:6f:15:13:b5:94:e7:54:
                    8e:c1:18:37:6c:d8:0b:90:5a:a4:5d:a5:0e:42:74:
                    4e:7e:ad:e9:34:37:a7:6d:e5:30:c6:41:7b:f8:85:
                    e9:61:84:cc:d8:80:f2:7f:af:6e:22:bc:2c:ce:27:
                    1f:4a:fd:36:bc:1c:9d:f5:5f:e9:b4:96:0f:88:31:
                    8f:a7:6d:38:54:a8:7e:2c:1c:1c:72:8c:2f:0b:0a:
                    71:6f:d2:d5:c6:ac:e9:e0:e9:7e:72:46:43:a0:00:
                    60:33:62:d7:7a:ff:1e:7f:77
                Exponent: 65537 (0x10001)
        X509v3 extensions:
            X509v3 Basic Constraints: 
                CA:FALSE
            X509v3 Key Usage: 
                Digital Signature, Non Repudiation, Key Encipherment
            X509v3 Subject Key Identifier: 
                4A:F7:E8:EB:57:1B:AB:49:41:23:E8:02:64:23:83:23:17:0E:CA:05
            X509v3 Authority Key Identifier: 
                keyid:9F:73:10:61:42:11:4D:82:CA:F0:FF:37:E9:17:C3:20:C8:DB:1E:4A

            1.2.3.4: 
                ..Some random data
    Signature Algorithm: sha1WithRSAEncryption
         b7:2d:23:88:43:67:46:46:61:df:b8:04:cc:db:54:71:2a:56:
         37:47:13:78:9e:c6:7f:ee:4a:3e:be:41:c9:74:ac:ea:14:e7:
         ff:20:4e:92:72:96:e7:72:a2:65:af:ee:6c:d0:d3:d6:f4:24:
         38:e7:e9:b2:ff:40:3e:a1:9b:51:41:b2:2a:55:66:56:c0:fb:
         43:cf:94:7f:b7:d4:0f:9b:61:8b:48:31:f5:49:11:c0:77:af:
         a0:6e:57:5c:43:fb:e4:15:90:f2:e3:83:9b:e3:fb:7b:5f:8d:
         88:bc:ce:ab:f3:8f:a6:c6:d8:57:04:65:04:2b:cc:8c:98:9d:
         a1:9a
-----BEGIN CERTIFICATE-----
MIICijCCAfOgAwIBAgIBAzANBgkqhkiG9w0BAQUFADBFMQswCQYDVQQGEwJBVTET
MBEGA1UECAwKU29tZS1TdGF0ZTEhMB8GA1UECgwYSW50ZXJuZXQgV2lkZ2l0cyBQ
dHkgTHRkMB4XDTE0MDYwNjE3MjAyNVoXDTI0MDYwMzE3MjAyNVowWjELMAkGA1UE
BhMCQVUxEzARBgNVBAgMClNvbWUtU3RhdGUxITAfBgNVBAoMGEludGVybmV0IFdp
ZGdpdHMgUHR5IEx0ZDETMBEGA1UEAwwKZm9vYmFyLmNvbTCBnzANBgkqhkiG9w0B
AQEFAAOBjQAwgYkCgYEA5BPn8JeHYl/izHmyVXfXwri501G5cm8VE7WU51SOwRg3
bNgLkFqkXaUOQnROfq3pNDenbeUwxkF7+IXpYYTM2IDyf69uIrwszicfSv02vByd
9V/ptJYPiDGPp204VKh+LBwccowvCwpxb9LVxqzp4Ol+ckZDoABgM2LXev8ef3cC
AwEAAaN1MHMwCQYDVR0TBAIwADALBgNVHQ8EBAMCBeAwHQYDVR0OBBYEFEr36OtX
G6tJQSPoAmQjgyMXDsoFMB8GA1UdIwQYMBaAFJ9zEGFCEU2CyvD/N+kXwyDI2x5K
MBkGAyoDBAQSDBBTb21lIHJhbmRvbSBkYXRhMA0GCSqGSIb3DQEBBQUAA4GBALct
I4hDZ0ZGYd+4BMzbVHEqVjdHE3iexn/uSj6+Qcl0rOoU5/8gTpJyludyomWv7mzQ
09b0JDjn6bL/QD6hm1FBsipVZlbA+0PPlH+31A+bYYtIMfVJEcB3r6BuV1xD++QV
kPLjg5vj+3tfjYi8zqvzj6bG2FcEZQQrzIyYnaGa
-----END CERTIFICATE-----
