Certificate:
    Data:
        Version: 3 (0x2)
        Serial Number: 4 (0x4)
    Signature Algorithm: sha1WithRSAEncryption
        Issuer: C=AU, ST=Some-State, O=Internet Widgits Pty Ltd
        Validity
            Not Before: Jun  6 17:21:03 2014 GMT
            Not After : Jun  3 17:21:03 2024 GMT
        Subject: C=AU, ST=Some-State, O=Internet Widgits Pty Ltd, CN=*.foobar.com
        Subject Public Key Info:
            Public Key Algorithm: rsaEncryption
                Public-Key: (1024 bit)
                Modulus:
                    00:e4:13:e7:f0:97:87:62:5f:e2:cc:79:b2:55:77:
                    d7:c2:b8:b9:d3:51:b9:72:6f:15:13:b5:94:e7:54:
                    8e:c1:18:37:6c:d8:0b:90:5a:a4:5d:a5:0e:42:74:
                    4e:7e:ad:e9:34:37:a7:6d:e5:30:c6:41:7b:f8:85:
                    e9:61:84:cc:d8:80:f2:7f:af:6e:22:bc:2c:ce:27:
                    1f:4a:fd:36:bc:1c:9d:f5:5f:e9:b4:96:0f:88:31:
                    8f:a7:6d:38:54:a8:7e:2c:1c:1c:72:8c:2f:0b:0a:
                    71:6f:d2:d5:c6:ac:e9:e0:e9:7e:72:46:43:a0:00:
                    60:33:62:d7:7a:ff:1e:7f:77
                Exponent: 65537 (0x10001)
        X509v3 extensions:
            X509v3 Basic Constraints: 
                CA:FALSE
            X509v3 Key Usage: 
                Digital Signature, Non Repudiation, Key Encipherment
            X509v3 Subject Key Identifier: 
                4A:F7:E8:EB:57:1B:AB:49:41:23:E8:02:64:23:83:23:17:0E:CA:05
            X509v3 Authority Key Identifier: 
                keyid:9F:73:10:61:42:11:4D:82:CA:F0:FF:37:E9:17:C3:20:C8:DB:1E:4A

    Signature Algorithm: sha1WithRSAEncryption
         68:c1:17:fa:0c:e4:04:cd:2b:19:ea:e7:a6:02:27:73:f2:e2:
         54:b9:6c:8d:2f:06:be:a5:82:83:41:37:ae:f2:5c:cf:62:a0:
         2a:79:37:7c:79:6c:cc:9f:f0:64:a9:8a:1b:93:62:f9:c2:08:
         88:e2:73:77:77:73:f7:3f:9e:d6:b1:2c:56:65:a7:cb:10:b9:
         79:7b:c6:4b:56:8e:08:d7:51:59:f0:47:6f:fd:b9:32:b0:b8:
         69:f1:74:97:a9:9b:11:5a:86:03:14:2a:3b:a7:11:cb:0c:02:
         67:dd:45:db:5d:a3:d0:8a:41:2c:13:3f:7f:37:24:2f:49:d4:
         07:c1
-----BEGIN CERTIFICATE-----
MIICcTCCAdqgAwIBAgIBBDANBgkqhkiG9w0BAQUFADBFMQswCQYDVQQGEwJBVTET
MBEGA1UECAwKU29tZS1TdGF0ZTEhMB8GA1UECgwYSW50ZXJuZXQgV2lkZ2l0cyBQ
dHkgTHRkMB4XDTE0MDYwNjE3MjEwM1oXDTI0MDYwMzE3MjEwM1owXDELMAkGA1UE
BhMCQVUxEzARBgNVBAgMClNvbWUtU3RhdGUxITAfBgNVBAoMGEludGVybmV0IFdp
ZGdpdHMgUHR5IEx0ZDEVMBMGA1UEAwwMKi5mb29iYXIuY29tMIGfMA0GCSqGSIb3
DQEBAQUAA4GNADCBiQKBgQDkE+fwl4diX+LMebJVd9fCuLnTUblybxUTtZTnVI7B
GDds2AuQWqRdpQ5CdE5+rek0N6dt5TDGQXv4helhhMzYgPJ/r24ivCzOJx9K/Ta8
HJ31X+m0lg+IMY+nbThUqH4sHBxyjC8LCnFv0tXGrOng6X5yRkOgAGAzYtd6/x5/
dwIDAQABo1owWDAJBgNVHRMEAjAAMAsGA1UdDwQEAwIF4DAdBgNVHQ4EFgQUSvfo
61cbq0lBI+gCZCODIxcOygUwHwYDVR0jBBgwFoAUn3MQYUIRTYLK8P836RfDIMjb
HkowDQYJKoZIhvcNAQEFBQADgYEAaMEX+gzkBM0rGernpgInc/LiVLlsjS8GvqWC
g0E3rvJcz2KgKnk3fHlszJ/wZKmKG5Ni+cIIiOJzd3dz9z+e1rEsVmWnyxC5eXvG
S1aOCNdRWfBHb/25MrC4afF0l6mbEVqGAxQqO6cRywwCZ91F212j0IpBLBM/fzck
L0nUB8E=
-----END CERTIFICATE-----
