Certificate:
    Data:
        Version: 3 (0x2)
        Serial Number: 8 (0x8)
    Signature Algorithm: sha1WithRSAEncryption
        Issuer: C=AU, ST=Some-State, O=Internet Widgits Pty Ltd
        Validity
            Not Before: Jun  7 14:06:12 2014 GMT
            Not After : Jun  4 14:06:12 2024 GMT
        Subject: C=AU, ST=Some-State, O=Internet Widgits Pty Ltd, CN=signing CA
        Subject Public Key Info:
            Public Key Algorithm: rsaEncryption
                Public-Key: (1024 bit)
                Modulus:
                    00:ca:53:26:f9:ea:f4:1b:8a:70:c0:8c:17:17:c4:
                    af:69:61:7a:62:8f:79:81:9e:16:9c:22:5c:64:25:
                    fa:b3:be:bd:d1:84:98:7b:06:18:35:92:3a:c6:4b:
                    77:b4:90:61:6d:e1:6e:e9:bd:0a:72:a7:fb:27:51:
                    ac:c6:43:5f:b9:60:41:a7:af:28:ff:6b:62:6a:ff:
                    54:16:06:84:48:94:4e:26:fe:bb:2b:f3:b2:8a:be:
                    a2:a1:88:d1:4c:89:8e:29:60:41:9f:16:55:31:55:
                    86:c0:90:f4:b0:5e:63:7d:18:d8:d9:fb:0a:f3:df:
                    92:90:b1:78:e6:2e:c8:09:15
                Exponent: 65537 (0x10001)
        X509v3 extensions:
            X509v3 Basic Constraints: critical
                CA:TRUE
            X509v3 Key Usage: 
                Certificate Sign
            X509v3 Subject Key Identifier: 
                70:46:49:1B:C2:71:2E:C0:50:D3:4B:18:58:8A:C4:10:1C:AE:B3:59
            X509v3 Authority Key Identifier: 
                keyid:9F:73:10:61:42:11:4D:82:CA:F0:FF:37:E9:17:C3:20:C8:DB:1E:4A

    Signature Algorithm: sha1WithRSAEncryption
         1d:9e:fa:5f:8f:1e:15:e9:d9:c7:9c:1c:30:0e:78:3c:ac:01:
         4b:5c:42:03:e8:01:c3:1c:22:04:f4:ef:6f:f1:55:cc:fc:70:
         a3:75:ae:98:ea:f2:b6:77:a5:46:14:49:56:85:e7:dd:d7:57:
         a2:32:12:86:ec:7b:19:4c:d5:76:0b:7c:f5:64:3a:4c:52:b4:
         6b:49:15:58:73:f9:21:23:de:dc:1c:6f:fa:d5:0a:93:1b:7d:
         68:70:a8:47:2d:41:5f:ea:94:a5:6f:69:8d:f8:2f:40:b1:a5:
         d2:33:af:6e:32:fe:43:7b:70:73:3e:2b:fa:d7:fa:c7:1e:73:
         10:23
-----BEGIN CERTIFICATE-----
MIICdTCCAd6gAwIBAgIBCDANBgkqhkiG9w0BAQUFADBFMQswCQYDVQQGEwJBVTET
MBEGA1UECAwKU29tZS1TdGF0ZTEhMB8GA1UECgwYSW50ZXJuZXQgV2lkZ2l0cyBQ
dHkgTHRkMB4XDTE0MDYwNzE0MDYxMloXDTI0MDYwNDE0MDYxMlowWjELMAkGA1UE
BhMCQVUxEzARBgNVBAgMClNvbWUtU3RhdGUxITAfBgNVBAoMGEludGVybmV0IFdp
ZGdpdHMgUHR5IEx0ZDETMBEGA1UEAwwKc2lnbmluZyBDQTCBnzANBgkqhkiG9w0B
AQEFAAOBjQAwgYkCgYEAylMm+er0G4pwwIwXF8SvaWF6Yo95gZ4WnCJcZCX6s769
0YSYewYYNZI6xkt3tJBhbeFu6b0Kcqf7J1GsxkNfuWBBp68o/2tiav9UFgaESJRO
Jv67K/Oyir6ioYjRTImOKWBBnxZVMVWGwJD0sF5jfRjY2fsK89+SkLF45i7ICRUC
AwEAAaNgMF4wDwYDVR0TAQH/BAUwAwEB/zALBgNVHQ8EBAMCAgQwHQYDVR0OBBYE
FHBGSRvCcS7AUNNLGFiKxBAcrrNZMB8GA1UdIwQYMBaAFJ9zEGFCEU2CyvD/N+kX
wyDI2x5KMA0GCSqGSIb3DQEBBQUAA4GBAB2e+l+PHhXp2cecHDAOeDysAUtcQgPo
AcMcIgT072/xVcz8cKN1rpjq8rZ3pUYUSVaF593XV6IyEobsexlM1XYLfPVkOkxS
tGtJFVhz+SEj3twcb/rVCpMbfWhwqEctQV/qlKVvaY34L0CxpdIzr24y/kN7cHM+
K/rX+scecxAj
-----END CERTIFICATE-----
