Certificate:
    Data:
        Version: 3 (0x2)
        Serial Number: 21 (0x15)
    Signature Algorithm: sha1WithRSAEncryption
        Issuer: C=AU, ST=Some-State, O=Internet Widgits Pty Ltd
        Validity
            Not Before: Jun  7 20:17:41 2014 GMT
            Not After : Jun  4 20:17:41 2024 GMT
        Subject: C=AU, ST=Some-State, O=Internet Widgits Pty Ltd, CN=signing CA
        Subject Public Key Info:
            Public Key Algorithm: rsaEncryption
                Public-Key: (1024 bit)
                Modulus:
                    00:ca:53:26:f9:ea:f4:1b:8a:70:c0:8c:17:17:c4:
                    af:69:61:7a:62:8f:79:81:9e:16:9c:22:5c:64:25:
                    fa:b3:be:bd:d1:84:98:7b:06:18:35:92:3a:c6:4b:
                    77:b4:90:61:6d:e1:6e:e9:bd:0a:72:a7:fb:27:51:
                    ac:c6:43:5f:b9:60:41:a7:af:28:ff:6b:62:6a:ff:
                    54:16:06:84:48:94:4e:26:fe:bb:2b:f3:b2:8a:be:
                    a2:a1:88:d1:4c:89:8e:29:60:41:9f:16:55:31:55:
                    86:c0:90:f4:b0:5e:63:7d:18:d8:d9:fb:0a:f3:df:
                    92:90:b1:78:e6:2e:c8:09:15
                Exponent: 65537 (0x10001)
        X509v3 extensions:
            X509v3 Subject Key Identifier: 
                70:46:49:1B:C2:71:2E:C0:50:D3:4B:18:58:8A:C4:10:1C:AE:B3:59
            X509v3 Authority Key Identifier: 
                keyid:9F:73:10:61:42:11:4D:82:CA:F0:FF:37:E9:17:C3:20:C8:DB:1E:4A

            X509v3 Key Usage: 
                Certificate Sign, CRL Sign
    Signature Algorithm: sha1WithRSAEncryption
         32:a8:c9:7d:d8:a5:3c:da:f3:58:07:bb:e7:04:e2:fa:db:a3:
         85:bd:06:49:fc:ca:a3:87:cb:5b:43:de:b2:8e:fd:c5:3e:35:
         ea:d7:ab:36:d2:f4:b2:05:41:4b:12:6d:82:9f:98:81:49:ad:
         53:a1:d1:72:2e:4e:f3:87:13:c0:b7:4e:1c:a3:b6:66:a1:0d:
         36:8a:58:3c:7f:29:46:a8:88:8a:f9:f8:d2:3d:de:31:00:f3:
         2c:8e:cd:7b:58:11:39:b9:74:10:38:95:d2:84:71:f5:ee:6f:
         e4:ed:cd:c6:9a:67:4f:42:d7:ae:4f:9a:ac:22:6c:d3:80:76:
         1f:79
-----BEGIN CERTIFICATE-----
MIICZDCCAc2gAwIBAgIBFTANBgkqhkiG9w0BAQUFADBFMQswCQYDVQQGEwJBVTET
MBEGA1UECAwKU29tZS1TdGF0ZTEhMB8GA1UECgwYSW50ZXJuZXQgV2lkZ2l0cyBQ
dHkgTHRkMB4XDTE0MDYwNzIwMTc0MVoXDTI0MDYwNDIwMTc0MVowWjELMAkGA1UE
BhMCQVUxEzARBgNVBAgMClNvbWUtU3RhdGUxITAfBgNVBAoMGEludGVybmV0IFdp
ZGdpdHMgUHR5IEx0ZDETMBEGA1UEAwwKc2lnbmluZyBDQTCBnzANBgkqhkiG9w0B
AQEFAAOBjQAwgYkCgYEAylMm+er0G4pwwIwXF8SvaWF6Yo95gZ4WnCJcZCX6s769
0YSYewYYNZI6xkt3tJBhbeFu6b0Kcqf7J1GsxkNfuWBBp68o/2tiav9UFgaESJRO
Jv67K/Oyir6ioYjRTImOKWBBnxZVMVWGwJD0sF5jfRjY2fsK89+SkLF45i7ICRUC
AwEAAaNPME0wHQYDVR0OBBYEFHBGSRvCcS7AUNNLGFiKxBAcrrNZMB8GA1UdIwQY
MBaAFJ9zEGFCEU2CyvD/N+kXwyDI2x5KMAsGA1UdDwQEAwIBBjANBgkqhkiG9w0B
AQUFAAOBgQAyqMl92KU82vNYB7vnBOL626OFvQZJ/Mqjh8tbQ96yjv3FPjXq16s2
0vSyBUFLEm2Cn5iBSa1TodFyLk7zhxPAt04co7ZmoQ02ilg8fylGqIiK+fjSPd4x
APMsjs17WBE5uXQQOJXShHH17m/k7c3GmmdPQteuT5qsImzTgHYfeQ==
-----END CERTIFICATE-----
