Certificate:
    Data:
        Version: 3 (0x2)
        Serial Number: 16 (0x10)
    Signature Algorithm: sha1WithRSAEncryption
        Issuer: C=AU, ST=Some-State, O=Internet Widgits Pty Ltd
        Validity
            Not Before: Jun  7 15:04:42 2014 GMT
            Not After : Jun  4 15:04:42 2024 GMT
        Subject: C=AU, ST=Some-State, O=Internet Widgits Pty Ltd, CN=signing CA
        Subject Public Key Info:
            Public Key Algorithm: rsaEncryption
                Public-Key: (1024 bit)
                Modulus:
                    00:ca:53:26:f9:ea:f4:1b:8a:70:c0:8c:17:17:c4:
                    af:69:61:7a:62:8f:79:81:9e:16:9c:22:5c:64:25:
                    fa:b3:be:bd:d1:84:98:7b:06:18:35:92:3a:c6:4b:
                    77:b4:90:61:6d:e1:6e:e9:bd:0a:72:a7:fb:27:51:
                    ac:c6:43:5f:b9:60:41:a7:af:28:ff:6b:62:6a:ff:
                    54:16:06:84:48:94:4e:26:fe:bb:2b:f3:b2:8a:be:
                    a2:a1:88:d1:4c:89:8e:29:60:41:9f:16:55:31:55:
                    86:c0:90:f4:b0:5e:63:7d:18:d8:d9:fb:0a:f3:df:
                    92:90:b1:78:e6:2e:c8:09:15
                Exponent: 65537 (0x10001)
        X509v3 extensions:
            X509v3 Subject Key Identifier: 
                70:46:49:1B:C2:71:2E:C0:50:D3:4B:18:58:8A:C4:10:1C:AE:B3:59
            X509v3 Authority Key Identifier: 
                keyid:9F:73:10:61:42:11:4D:82:CA:F0:FF:37:E9:17:C3:20:C8:DB:1E:4A

            X509v3 Basic Constraints: critical
                CA:FALSE
            X509v3 Key Usage: 
                Certificate Sign, CRL Sign
    Signature Algorithm: sha1WithRSAEncryption
         5a:fb:c5:0a:22:3d:76:de:b6:3a:85:06:9f:dc:97:e7:44:2c:
         88:c5:4f:6f:3e:f9:31:8f:55:25:28:d0:0f:0c:5d:f9:08:b6:
         3e:50:be:5d:ee:d7:bb:47:87:02:d0:a3:73:f4:95:ee:99:d0:
         89:07:f7:a7:89:0a:7d:07:3b:a3:75:8a:af:22:23:30:33:2b:
         96:b1:8d:59:1b:32:63:e4:6c:99:ef:9c:66:30:9b:e7:36:31:
         5d:1e:d8:7e:1b:fa:65:cd:e3:25:28:aa:d6:6a:35:a2:a7:77:
         9b:ca:4d:12:0a:91:3a:5b:74:05:7d:57:9c:4d:d0:a0:74:e5:
         12:73
-----BEGIN CERTIFICATE-----
MIICcjCCAdugAwIBAgIBEDANBgkqhkiG9w0BAQUFADBFMQswCQYDVQQGEwJBVTET
MBEGA1UECAwKU29tZS1TdGF0ZTEhMB8GA1UECgwYSW50ZXJuZXQgV2lkZ2l0cyBQ
dHkgTHRkMB4XDTE0MDYwNzE1MDQ0MloXDTI0MDYwNDE1MDQ0MlowWjELMAkGA1UE
BhMCQVUxEzARBgNVBAgMClNvbWUtU3RhdGUxITAfBgNVBAoMGEludGVybmV0IFdp
ZGdpdHMgUHR5IEx0ZDETMBEGA1UEAwwKc2lnbmluZyBDQTCBnzANBgkqhkiG9w0B
AQEFAAOBjQAwgYkCgYEAylMm+er0G4pwwIwXF8SvaWF6Yo95gZ4WnCJcZCX6s769
0YSYewYYNZI6xkt3tJBhbeFu6b0Kcqf7J1GsxkNfuWBBp68o/2tiav9UFgaESJRO
Jv67K/Oyir6ioYjRTImOKWBBnxZVMVWGwJD0sF5jfRjY2fsK89+SkLF45i7ICRUC
AwEAAaNdMFswHQYDVR0OBBYEFHBGSRvCcS7AUNNLGFiKxBAcrrNZMB8GA1UdIwQY
MBaAFJ9zEGFCEU2CyvD/N+kXwyDI2x5KMAwGA1UdEwEB/wQCMAAwCwYDVR0PBAQD
AgEGMA0GCSqGSIb3DQEBBQUAA4GBAFr7xQoiPXbetjqFBp/cl+dELIjFT28++TGP
VSUo0A8MXfkItj5Qvl3u17tHhwLQo3P0le6Z0IkH96eJCn0HO6N1iq8iIzAzK5ax
jVkbMmPkbJnvnGYwm+c2MV0e2H4b+mXN4yUoqtZqNaKnd5vKTRIKkTpbdAV9V5xN
0KB05RJz
-----END CERTIFICATE-----
