Certificate:
    Data:
        Version: 3 (0x2)
        Serial Number: 18 (0x12)
    Signature Algorithm: sha1WithRSAEncryption
        Issuer: C=AU, ST=Some-State, O=Internet Widgits Pty Ltd
        Validity
            Not Before: Jun  7 15:05:29 2014 GMT
            Not After : Jun  4 15:05:29 2024 GMT
        Subject: C=AU, ST=Some-State, O=Internet Widgits Pty Ltd, CN=signing CA
        Subject Public Key Info:
            Public Key Algorithm: rsaEncryption
                Public-Key: (1024 bit)
                Modulus:
                    00:ca:53:26:f9:ea:f4:1b:8a:70:c0:8c:17:17:c4:
                    af:69:61:7a:62:8f:79:81:9e:16:9c:22:5c:64:25:
                    fa:b3:be:bd:d1:84:98:7b:06:18:35:92:3a:c6:4b:
                    77:b4:90:61:6d:e1:6e:e9:bd:0a:72:a7:fb:27:51:
                    ac:c6:43:5f:b9:60:41:a7:af:28:ff:6b:62:6a:ff:
                    54:16:06:84:48:94:4e:26:fe:bb:2b:f3:b2:8a:be:
                    a2:a1:88:d1:4c:89:8e:29:60:41:9f:16:55:31:55:
                    86:c0:90:f4:b0:5e:63:7d:18:d8:d9:fb:0a:f3:df:
                    92:90:b1:78:e6:2e:c8:09:15
                Exponent: 65537 (0x10001)
        X509v3 extensions:
            X509v3 Subject Key Identifier: 
                70:46:49:1B:C2:71:2E:C0:50:D3:4B:18:58:8A:C4:10:1C:AE:B3:59
            X509v3 Authority Key Identifier: 
                keyid:9F:73:10:61:42:11:4D:82:CA:F0:FF:37:E9:17:C3:20:C8:DB:1E:4A

            X509v3 Basic Constraints: critical
                CA:TRUE
    Signature Algorithm: sha1WithRSAEncryption
         6e:6c:e2:73:b6:77:9a:a4:14:34:2d:f9:93:3a:4e:0b:26:f7:
         f0:63:c7:8f:1e:2b:cf:fb:f3:db:6d:e1:13:eb:ec:c6:62:f5:
         87:d7:f7:9e:db:55:d2:3f:79:b0:b8:61:5a:2a:c1:2f:e8:b4:
         f5:7d:55:fa:9b:d9:cd:09:62:d8:84:d7:86:e1:82:a1:c8:da:
         41:92:5f:aa:f8:6e:59:b2:7d:d0:0a:f0:44:f6:c8:44:91:7d:
         2d:71:59:27:6f:e7:22:0e:65:d5:62:bf:f0:98:53:34:76:16:
         1a:61:46:4a:13:a0:db:71:b6:ca:8e:8e:d6:2a:4e:88:e1:8c:
         99:8b
-----BEGIN CERTIFICATE-----
MIICaDCCAdGgAwIBAgIBEjANBgkqhkiG9w0BAQUFADBFMQswCQYDVQQGEwJBVTET
MBEGA1UECAwKU29tZS1TdGF0ZTEhMB8GA1UECgwYSW50ZXJuZXQgV2lkZ2l0cyBQ
dHkgTHRkMB4XDTE0MDYwNzE1MDUyOVoXDTI0MDYwNDE1MDUyOVowWjELMAkGA1UE
BhMCQVUxEzARBgNVBAgMClNvbWUtU3RhdGUxITAfBgNVBAoMGEludGVybmV0IFdp
ZGdpdHMgUHR5IEx0ZDETMBEGA1UEAwwKc2lnbmluZyBDQTCBnzANBgkqhkiG9w0B
AQEFAAOBjQAwgYkCgYEAylMm+er0G4pwwIwXF8SvaWF6Yo95gZ4WnCJcZCX6s769
0YSYewYYNZI6xkt3tJBhbeFu6b0Kcqf7J1GsxkNfuWBBp68o/2tiav9UFgaESJRO
Jv67K/Oyir6ioYjRTImOKWBBnxZVMVWGwJD0sF5jfRjY2fsK89+SkLF45i7ICRUC
AwEAAaNTMFEwHQYDVR0OBBYEFHBGSRvCcS7AUNNLGFiKxBAcrrNZMB8GA1UdIwQY
MBaAFJ9zEGFCEU2CyvD/N+kXwyDI2x5KMA8GA1UdEwEB/wQFMAMBAf8wDQYJKoZI
hvcNAQEFBQADgYEAbmzic7Z3mqQUNC35kzpOCyb38GPHjx4rz/vz223hE+vsxmL1
h9f3nttV0j95sLhhWirBL+i09X1V+pvZzQli2ITXhuGCocjaQZJfqvhuWbJ90Arw
RPbIRJF9LXFZJ2/nIg5l1WK/8JhTNHYWGmFGShOg23G2yo6O1ipOiOGMmYs=
-----END CERTIFICATE-----
