Certificate:
    Data:
        Version: 3 (0x2)
        Serial Number: 19 (0x13)
    Signature Algorithm: sha1WithRSAEncryption
        Issuer: C=AU, ST=Some-State, O=Internet Widgits Pty Ltd
        Validity
            Not Before: Jun  7 15:06:35 2014 GMT
            Not After : Jun  4 15:06:35 2024 GMT
        Subject: C=AU, ST=Some-State, O=Internet Widgits Pty Ltd, CN=signing CA
        Subject Public Key Info:
            Public Key Algorithm: rsaEncryption
                Public-Key: (1024 bit)
                Modulus:
                    00:ca:53:26:f9:ea:f4:1b:8a:70:c0:8c:17:17:c4:
                    af:69:61:7a:62:8f:79:81:9e:16:9c:22:5c:64:25:
                    fa:b3:be:bd:d1:84:98:7b:06:18:35:92:3a:c6:4b:
                    77:b4:90:61:6d:e1:6e:e9:bd:0a:72:a7:fb:27:51:
                    ac:c6:43:5f:b9:60:41:a7:af:28:ff:6b:62:6a:ff:
                    54:16:06:84:48:94:4e:26:fe:bb:2b:f3:b2:8a:be:
                    a2:a1:88:d1:4c:89:8e:29:60:41:9f:16:55:31:55:
                    86:c0:90:f4:b0:5e:63:7d:18:d8:d9:fb:0a:f3:df:
                    92:90:b1:78:e6:2e:c8:09:15
                Exponent: 65537 (0x10001)
        X509v3 extensions:
            X509v3 Subject Key Identifier: 
                70:46:49:1B:C2:71:2E:C0:50:D3:4B:18:58:8A:C4:10:1C:AE:B3:59
            X509v3 Authority Key Identifier: 
                keyid:9F:73:10:61:42:11:4D:82:CA:F0:FF:37:E9:17:C3:20:C8:DB:1E:4A

            X509v3 Basic Constraints: critical
                CA:TRUE
            X509v3 Key Usage: 
                Certificate Sign, CRL Sign
            X509v3 Extended Key Usage: 
                Any Extended Key Usage
    Signature Algorithm: sha1WithRSAEncryption
         5b:69:22:ab:5a:ae:15:d8:a3:35:ff:66:fc:c8:44:25:a3:c2:
         32:26:b2:b8:68:29:30:97:52:a1:31:1f:86:e0:97:6c:00:98:
         75:1f:e8:3d:66:bd:9f:7f:51:e8:3f:d0:28:10:1c:0a:0b:3b:
         8a:69:a8:30:c9:14:22:92:fa:09:bb:04:ab:15:6b:6e:89:14:
         63:26:7b:e3:6d:3d:f3:94:f3:16:9d:25:7f:d6:70:af:fa:99:
         f4:a4:38:1e:47:69:87:e1:5c:80:b7:0f:34:36:e2:ba:35:c3:
         f0:c3:02:90:16:b5:be:22:84:6e:1e:83:8c:91:55:62:40:23:
         71:c5
-----BEGIN CERTIFICATE-----
MIIChjCCAe+gAwIBAgIBEzANBgkqhkiG9w0BAQUFADBFMQswCQYDVQQGEwJBVTET
MBEGA1UECAwKU29tZS1TdGF0ZTEhMB8GA1UECgwYSW50ZXJuZXQgV2lkZ2l0cyBQ
dHkgTHRkMB4XDTE0MDYwNzE1MDYzNVoXDTI0MDYwNDE1MDYzNVowWjELMAkGA1UE
BhMCQVUxEzARBgNVBAgMClNvbWUtU3RhdGUxITAfBgNVBAoMGEludGVybmV0IFdp
ZGdpdHMgUHR5IEx0ZDETMBEGA1UEAwwKc2lnbmluZyBDQTCBnzANBgkqhkiG9w0B
AQEFAAOBjQAwgYkCgYEAylMm+er0G4pwwIwXF8SvaWF6Yo95gZ4WnCJcZCX6s769
0YSYewYYNZI6xkt3tJBhbeFu6b0Kcqf7J1GsxkNfuWBBp68o/2tiav9UFgaESJRO
Jv67K/Oyir6ioYjRTImOKWBBnxZVMVWGwJD0sF5jfRjY2fsK89+SkLF45i7ICRUC
AwEAAaNxMG8wHQYDVR0OBBYEFHBGSRvCcS7AUNNLGFiKxBAcrrNZMB8GA1UdIwQY
MBaAFJ9zEGFCEU2CyvD/N+kXwyDI2x5KMA8GA1UdEwEB/wQFMAMBAf8wCwYDVR0P
BAQDAgEGMA8GA1UdJQQIMAYGBFUdJQAwDQYJKoZIhvcNAQEFBQADgYEAW2kiq1qu
FdijNf9m/MhEJaPCMiayuGgpMJdSoTEfhuCXbACYdR/oPWa9n39R6D/QKBAcCgs7
immoMMkUIpL6CbsEqxVrbokUYyZ7420985TzFp0lf9Zwr/qZ9KQ4Hkdph+FcgLcP
NDbiujXD8MMCkBa1viKEbh6DjJFVYkAjccU=
-----END CERTIFICATE-----
