Certificate:
    Data:
        Version: 3 (0x2)
        Serial Number: 6 (0x6)
    Signature Algorithm: sha1WithRSAEncryption
        Issuer: C=AU, ST=Some-State, O=Internet Widgits Pty Ltd, CN=signing CA
        Validity
            Not Before: Jun  7 15:13:35 2014 GMT
            Not After : Jun  4 15:13:35 2024 GMT
        Subject: C=AU, ST=Some-State, O=Internet Widgits Pty Ltd, CN=second.foobar.com
        Subject Public Key Info:
            Public Key Algorithm: rsaEncryption
                Public-Key: (1024 bit)
                Modulus:
                    00:e4:13:e7:f0:97:87:62:5f:e2:cc:79:b2:55:77:
                    d7:c2:b8:b9:d3:51:b9:72:6f:15:13:b5:94:e7:54:
                    8e:c1:18:37:6c:d8:0b:90:5a:a4:5d:a5:0e:42:74:
                    4e:7e:ad:e9:34:37:a7:6d:e5:30:c6:41:7b:f8:85:
                    e9:61:84:cc:d8:80:f2:7f:af:6e:22:bc:2c:ce:27:
                    1f:4a:fd:36:bc:1c:9d:f5:5f:e9:b4:96:0f:88:31:
                    8f:a7:6d:38:54:a8:7e:2c:1c:1c:72:8c:2f:0b:0a:
                    71:6f:d2:d5:c6:ac:e9:e0:e9:7e:72:46:43:a0:00:
                    60:33:62:d7:7a:ff:1e:7f:77
                Exponent: 65537 (0x10001)
        X509v3 extensions:
            X509v3 Basic Constraints: critical
                CA:FALSE
            X509v3 Key Usage: 
                Digital Signature, Non Repudiation, Key Encipherment
            X509v3 Subject Key Identifier: 
                4A:F7:E8:EB:57:1B:AB:49:41:23:E8:02:64:23:83:23:17:0E:CA:05
            X509v3 Authority Key Identifier: 
                keyid:70:46:49:1B:C2:71:2E:C0:50:D3:4B:18:58:8A:C4:10:1C:AE:B3:59

            1.2.3.4: critical
                ..Some random data
    Signature Algorithm: sha1WithRSAEncryption
         22:43:ed:d2:8f:20:da:b4:31:1d:54:54:80:d4:b7:3b:c8:db:
         81:30:1b:29:c3:e7:76:6c:7c:c1:1d:86:97:d7:98:99:e7:99:
         87:25:11:30:9e:63:e2:4e:b2:a3:c9:97:aa:b0:a6:9c:73:76:
         c3:a0:15:b2:05:3e:3f:92:38:aa:62:26:78:56:85:c0:bb:1e:
         39:fa:f7:c8:40:25:9c:f9:c0:ce:70:b9:8a:b0:56:35:f7:54:
         91:b5:b6:33:85:f2:18:ae:f4:ca:a4:d9:a8:41:34:4a:7b:23:
         5d:41:77:87:6d:f9:65:07:62:6d:50:5a:f1:14:13:a3:c8:2f:
         7a:3d
-----BEGIN CERTIFICATE-----
MIICrDCCAhWgAwIBAgIBBjANBgkqhkiG9w0BAQUFADBaMQswCQYDVQQGEwJBVTET
MBEGA1UECAwKU29tZS1TdGF0ZTEhMB8GA1UECgwYSW50ZXJuZXQgV2lkZ2l0cyBQ
dHkgTHRkMRMwEQYDVQQDDApzaWduaW5nIENBMB4XDTE0MDYwNzE1MTMzNVoXDTI0
MDYwNDE1MTMzNVowYTELMAkGA1UEBhMCQVUxEzARBgNVBAgMClNvbWUtU3RhdGUx
ITAfBgNVBAoMGEludGVybmV0IFdpZGdpdHMgUHR5IEx0ZDEaMBgGA1UEAwwRc2Vj
b25kLmZvb2Jhci5jb20wgZ8wDQYJKoZIhvcNAQEBBQADgY0AMIGJAoGBAOQT5/CX
h2Jf4sx5slV318K4udNRuXJvFRO1lOdUjsEYN2zYC5BapF2lDkJ0Tn6t6TQ3p23l
MMZBe/iF6WGEzNiA8n+vbiK8LM4nH0r9NrwcnfVf6bSWD4gxj6dtOFSofiwcHHKM
LwsKcW/S1cas6eDpfnJGQ6AAYDNi13r/Hn93AgMBAAGjezB5MAwGA1UdEwEB/wQC
MAAwCwYDVR0PBAQDAgXgMB0GA1UdDgQWBBRK9+jrVxurSUEj6AJkI4MjFw7KBTAf
BgNVHSMEGDAWgBRwRkkbwnEuwFDTSxhYisQQHK6zWTAcBgMqAwQBAf8EEgwQU29t
ZSByYW5kb20gZGF0YTANBgkqhkiG9w0BAQUFAAOBgQAiQ+3SjyDatDEdVFSA1Lc7
yNuBMBspw+d2bHzBHYaX15iZ55mHJREwnmPiTrKjyZeqsKacc3bDoBWyBT4/kjiq
YiZ4VoXAux45+vfIQCWc+cDOcLmKsFY191SRtbYzhfIYrvTKpNmoQTRKeyNdQXeH
bfllB2JtUFrxFBOjyC96PQ==
-----END CERTIFICATE-----
