Certificate:
    Data:
        Version: 3 (0x2)
        Serial Number: 1 (0x1)
    Signature Algorithm: sha1WithRSAEncryption
        Issuer: C=AU, ST=Some-State, O=Internet Widgits Pty Ltd
        Validity
            Not Before: Jun  6 17:11:44 2014 GMT
            Not After : Jun  3 17:11:44 2024 GMT
        Subject: C=AU, ST=Some-State, O=Internet Widgits Pty Ltd, CN=bar.foobar.com
        Subject Public Key Info:
            Public Key Algorithm: rsaEncryption
                Public-Key: (1024 bit)
                Modulus:
                    00:e4:13:e7:f0:97:87:62:5f:e2:cc:79:b2:55:77:
                    d7:c2:b8:b9:d3:51:b9:72:6f:15:13:b5:94:e7:54:
                    8e:c1:18:37:6c:d8:0b:90:5a:a4:5d:a5:0e:42:74:
                    4e:7e:ad:e9:34:37:a7:6d:e5:30:c6:41:7b:f8:85:
                    e9:61:84:cc:d8:80:f2:7f:af:6e:22:bc:2c:ce:27:
                    1f:4a:fd:36:bc:1c:9d:f5:5f:e9:b4:96:0f:88:31:
                    8f:a7:6d:38:54:a8:7e:2c:1c:1c:72:8c:2f:0b:0a:
                    71:6f:d2:d5:c6:ac:e9:e0:e9:7e:72:46:43:a0:00:
                    60:33:62:d7:7a:ff:1e:7f:77
                Exponent: 65537 (0x10001)
        X509v3 extensions:
            X509v3 Basic Constraints: 
                CA:FALSE
            X509v3 Key Usage: 
                Digital Signature, Non Repudiation, Key Encipherment
            X509v3 Subject Key Identifier: 
                4A:F7:E8:EB:57:1B:AB:49:41:23:E8:02:64:23:83:23:17:0E:CA:05
            X509v3 Authority Key Identifier: 
                keyid:9F:73:10:61:42:11:4D:82:CA:F0:FF:37:E9:17:C3:20:C8:DB:1E:4A

            X509v3 Subject Alternative Name: 
                DNS:foo.foobar.com, DNS:foobar.com
    Signature Algorithm: sha1WithRSAEncryption
         9c:93:69:c4:94:ac:a3:c5:29:38:48:2f:bb:95:83:a2:62:81:
         30:b7:a0:d1:dd:f2:c7:8c:b7:3e:27:54:1e:a7:43:da:18:90:
         05:d0:ce:08:7e:26:c9:f9:65:7b:65:ce:33:55:95:47:c8:1d:
         4e:bf:0f:64:e9:ae:b1:b8:4a:23:0a:84:15:c2:8d:aa:65:9b:
         fa:1c:9c:cb:d8:2d:0a:9c:ee:a6:a0:91:1b:0b:a3:61:48:05:
         45:e1:1e:22:2e:52:0a:9c:0c:9a:80:cc:d4:8f:20:d2:60:2b:
         ed:60:7b:51:1c:3d:bc:75:b2:eb:45:67:51:6e:53:24:51:b8:
         6f:8e
-----BEGIN CERTIFICATE-----
MIICmzCCAgSgAwIBAgIBATANBgkqhkiG9w0BAQUFADBFMQswCQYDVQQGEwJBVTET
MBEGA1UECAwKU29tZS1TdGF0ZTEhMB8GA1UECgwYSW50ZXJuZXQgV2lkZ2l0cyBQ
dHkgTHRkMB4XDTE0MDYwNjE3MTE0NFoXDTI0MDYwMzE3MTE0NFowXjELMAkGA1UE
BhMCQVUxEzARBgNVBAgMClNvbWUtU3RhdGUxITAfBgNVBAoMGEludGVybmV0IFdp
ZGdpdHMgUHR5IEx0ZDEXMBUGA1UEAwwOYmFyLmZvb2Jhci5jb20wgZ8wDQYJKoZI
hvcNAQEBBQADgY0AMIGJAoGBAOQT5/CXh2Jf4sx5slV318K4udNRuXJvFRO1lOdU
jsEYN2zYC5BapF2lDkJ0Tn6t6TQ3p23lMMZBe/iF6WGEzNiA8n+vbiK8LM4nH0r9
NrwcnfVf6bSWD4gxj6dtOFSofiwcHHKMLwsKcW/S1cas6eDpfnJGQ6AAYDNi13r/
Hn93AgMBAAGjgYEwfzAJBgNVHRMEAjAAMAsGA1UdDwQEAwIF4DAdBgNVHQ4EFgQU
Svfo61cbq0lBI+gCZCODIxcOygUwHwYDVR0jBBgwFoAUn3MQYUIRTYLK8P836RfD
IMjbHkowJQYDVR0RBB4wHIIOZm9vLmZvb2Jhci5jb22CCmZvb2Jhci5jb20wDQYJ
KoZIhvcNAQEFBQADgYEAnJNpxJSso8UpOEgvu5WDomKBMLeg0d3yx4y3PidUHqdD
2hiQBdDOCH4myflle2XOM1WVR8gdTr8PZOmusbhKIwqEFcKNqmWb+hycy9gtCpzu
pqCRGwujYUgFReEeIi5SCpwMmoDM1I8g0mAr7WB7URw9vHWy60VnUW5TJFG4b44=
-----END CERTIFICATE-----
