Certificate:
    Data:
        Version: 3 (0x2)
        Serial Number: 11 (0xb)
    Signature Algorithm: sha1WithRSAEncryption
        Issuer: C=AU, ST=Some-State, O=Internet Widgits Pty Ltd, CN=signing CA
        Validity
            Not Before: Jun  7 20:27:58 2014 GMT
            Not After : Jun  4 20:27:58 2024 GMT
        Subject: C=AU, ST=Some-State, O=Internet Widgits Pty Ltd, CN=second.foobar.com
        Subject Public Key Info:
            Public Key Algorithm: rsaEncryption
                Public-Key: (1024 bit)
                Modulus:
                    00:e4:13:e7:f0:97:87:62:5f:e2:cc:79:b2:55:77:
                    d7:c2:b8:b9:d3:51:b9:72:6f:15:13:b5:94:e7:54:
                    8e:c1:18:37:6c:d8:0b:90:5a:a4:5d:a5:0e:42:74:
                    4e:7e:ad:e9:34:37:a7:6d:e5:30:c6:41:7b:f8:85:
                    e9:61:84:cc:d8:80:f2:7f:af:6e:22:bc:2c:ce:27:
                    1f:4a:fd:36:bc:1c:9d:f5:5f:e9:b4:96:0f:88:31:
                    8f:a7:6d:38:54:a8:7e:2c:1c:1c:72:8c:2f:0b:0a:
                    71:6f:d2:d5:c6:ac:e9:e0:e9:7e:72:46:43:a0:00:
                    60:33:62:d7:7a:ff:1e:7f:77
                Exponent: 65537 (0x10001)
        X509v3 extensions:
            X509v3 Basic Constraints: critical
                CA:FALSE
            X509v3 Key Usage: 
                Digital Signature, Non Repudiation, Key Encipherment
            X509v3 Subject Key Identifier: 
                4A:F7:E8:EB:57:1B:AB:49:41:23:E8:02:64:23:83:23:17:0E:CA:05
            X509v3 Authority Key Identifier: 
                keyid:70:46:49:1B:C2:71:2E:C0:50:D3:4B:18:58:8A:C4:10:1C:AE:B3:59

            X509v3 Subject Alternative Name: 
                email:foobar.com
    Signature Algorithm: sha1WithRSAEncryption
         37:e6:be:0f:75:4a:b8:c2:e1:7f:e2:70:31:41:12:41:cc:05:
         72:8f:ce:8c:2c:c2:1e:78:03:bb:61:f5:9a:76:cf:36:bb:66:
         cf:4c:f1:33:ba:9d:a7:7e:20:92:7c:bb:9c:01:53:ba:c9:13:
         2c:6e:c4:bf:04:ee:76:bc:eb:d3:87:e8:05:5c:62:f1:0e:7c:
         51:12:25:c8:4f:e6:8e:46:c1:15:2a:55:fb:e4:8a:e3:04:7f:
         9f:86:1d:03:e1:25:b4:6b:9a:bd:b6:02:ba:07:d4:82:04:06:
         fb:fd:7d:9b:7b:37:96:f2:04:0e:a4:f3:43:6c:9a:f1:fb:1f:
         4b:bc
-----BEGIN CERTIFICATE-----
MIICpTCCAg6gAwIBAgIBCzANBgkqhkiG9w0BAQUFADBaMQswCQYDVQQGEwJBVTET
MBEGA1UECAwKU29tZS1TdGF0ZTEhMB8GA1UECgwYSW50ZXJuZXQgV2lkZ2l0cyBQ
dHkgTHRkMRMwEQYDVQQDDApzaWduaW5nIENBMB4XDTE0MDYwNzIwMjc1OFoXDTI0
MDYwNDIwMjc1OFowYTELMAkGA1UEBhMCQVUxEzARBgNVBAgMClNvbWUtU3RhdGUx
ITAfBgNVBAoMGEludGVybmV0IFdpZGdpdHMgUHR5IEx0ZDEaMBgGA1UEAwwRc2Vj
b25kLmZvb2Jhci5jb20wgZ8wDQYJKoZIhvcNAQEBBQADgY0AMIGJAoGBAOQT5/CX
h2Jf4sx5slV318K4udNRuXJvFRO1lOdUjsEYN2zYC5BapF2lDkJ0Tn6t6TQ3p23l
MMZBe/iF6WGEzNiA8n+vbiK8LM4nH0r9NrwcnfVf6bSWD4gxj6dtOFSofiwcHHKM
LwsKcW/S1cas6eDpfnJGQ6AAYDNi13r/Hn93AgMBAAGjdDByMAwGA1UdEwEB/wQC
MAAwCwYDVR0PBAQDAgXgMB0GA1UdDgQWBBRK9+jrVxurSUEj6AJkI4MjFw7KBTAf
BgNVHSMEGDAWgBRwRkkbwnEuwFDTSxhYisQQHK6zWTAVBgNVHREEDjAMgQpmb29i
YXIuY29tMA0GCSqGSIb3DQEBBQUAA4GBADfmvg91SrjC4X/icDFBEkHMBXKPzows
wh54A7th9Zp2zza7Zs9M8TO6nad+IJJ8u5wBU7rJEyxuxL8E7na869OH6AVcYvEO
fFESJchP5o5GwRUqVfvkiuMEf5+GHQPhJbRrmr22AroH1IIEBvv9fZt7N5byBA6k
80NsmvH7H0u8
-----END CERTIFICATE-----
