Certificate:
    Data:
        Version: 3 (0x2)
        Serial Number: 4 (0x4)
    Signature Algorithm: sha1WithRSAEncryption
        Issuer: C=AU, ST=Some-State, O=Internet Widgits Pty Ltd, CN=signing CA
        Validity
            Not Before: Jun  7 15:12:00 2014 GMT
            Not After : Jun  4 15:12:00 2024 GMT
        Subject: C=AU, ST=Some-State, O=Internet Widgits Pty Ltd, CN=second.foobar.com
        Subject Public Key Info:
            Public Key Algorithm: rsaEncryption
                Public-Key: (1024 bit)
                Modulus:
                    00:e4:13:e7:f0:97:87:62:5f:e2:cc:79:b2:55:77:
                    d7:c2:b8:b9:d3:51:b9:72:6f:15:13:b5:94:e7:54:
                    8e:c1:18:37:6c:d8:0b:90:5a:a4:5d:a5:0e:42:74:
                    4e:7e:ad:e9:34:37:a7:6d:e5:30:c6:41:7b:f8:85:
                    e9:61:84:cc:d8:80:f2:7f:af:6e:22:bc:2c:ce:27:
                    1f:4a:fd:36:bc:1c:9d:f5:5f:e9:b4:96:0f:88:31:
                    8f:a7:6d:38:54:a8:7e:2c:1c:1c:72:8c:2f:0b:0a:
                    71:6f:d2:d5:c6:ac:e9:e0:e9:7e:72:46:43:a0:00:
                    60:33:62:d7:7a:ff:1e:7f:77
                Exponent: 65537 (0x10001)
        X509v3 extensions:
            X509v3 Basic Constraints: critical
                CA:FALSE
            X509v3 Key Usage: 
                Digital Signature, Non Repudiation, Key Encipherment
            X509v3 Subject Key Identifier: 
                4A:F7:E8:EB:57:1B:AB:49:41:23:E8:02:64:23:83:23:17:0E:CA:05
            X509v3 Authority Key Identifier: 
                keyid:70:46:49:1B:C2:71:2E:C0:50:D3:4B:18:58:8A:C4:10:1C:AE:B3:59

            X509v3 Extended Key Usage: 
                Any Extended Key Usage
    Signature Algorithm: sha1WithRSAEncryption
         5f:3b:4b:a3:70:1a:82:3e:9c:bb:cb:16:95:f3:b2:ef:3a:a6:
         09:1d:1c:b9:cb:ce:56:82:29:98:41:b8:c5:58:cb:35:27:45:
         9d:2e:f5:41:e1:a0:7c:5f:ee:2d:0c:9c:9b:42:31:61:27:fb:
         5f:d6:ce:a6:dc:c6:9b:b2:d1:3b:72:1e:b3:f1:20:73:7f:86:
         8a:1d:44:c8:d7:bc:f2:92:4a:2c:48:97:b5:12:63:99:f3:90:
         e5:79:bf:68:fe:11:34:1d:ac:75:80:d2:22:7f:53:2d:70:50:
         d2:a0:fc:7b:b9:8f:b3:5e:6c:70:b8:55:0b:52:d5:84:b7:7c:
         84:9b
-----BEGIN CERTIFICATE-----
MIICnzCCAgigAwIBAgIBBDANBgkqhkiG9w0BAQUFADBaMQswCQYDVQQGEwJBVTET
MBEGA1UECAwKU29tZS1TdGF0ZTEhMB8GA1UECgwYSW50ZXJuZXQgV2lkZ2l0cyBQ
dHkgTHRkMRMwEQYDVQQDDApzaWduaW5nIENBMB4XDTE0MDYwNzE1MTIwMFoXDTI0
MDYwNDE1MTIwMFowYTELMAkGA1UEBhMCQVUxEzARBgNVBAgMClNvbWUtU3RhdGUx
ITAfBgNVBAoMGEludGVybmV0IFdpZGdpdHMgUHR5IEx0ZDEaMBgGA1UEAwwRc2Vj
b25kLmZvb2Jhci5jb20wgZ8wDQYJKoZIhvcNAQEBBQADgY0AMIGJAoGBAOQT5/CX
h2Jf4sx5slV318K4udNRuXJvFRO1lOdUjsEYN2zYC5BapF2lDkJ0Tn6t6TQ3p23l
MMZBe/iF6WGEzNiA8n+vbiK8LM4nH0r9NrwcnfVf6bSWD4gxj6dtOFSofiwcHHKM
LwsKcW/S1cas6eDpfnJGQ6AAYDNi13r/Hn93AgMBAAGjbjBsMAwGA1UdEwEB/wQC
MAAwCwYDVR0PBAQDAgXgMB0GA1UdDgQWBBRK9+jrVxurSUEj6AJkI4MjFw7KBTAf
BgNVHSMEGDAWgBRwRkkbwnEuwFDTSxhYisQQHK6zWTAPBgNVHSUECDAGBgRVHSUA
MA0GCSqGSIb3DQEBBQUAA4GBAF87S6NwGoI+nLvLFpXzsu86pgkdHLnLzlaCKZhB
uMVYyzUnRZ0u9UHhoHxf7i0MnJtCMWEn+1/Wzqbcxpuy0TtyHrPxIHN/hoodRMjX
vPKSSixIl7USY5nzkOV5v2j+ETQdrHWA0iJ/Uy1wUNKg/Hu5j7NebHC4VQtS1YS3
fISb
-----END CERTIFICATE-----
