Certificate:
    Data:
        Version: 3 (0x2)
        Serial Number: 8 (0x8)
    Signature Algorithm: sha1WithRSAEncryption
        Issuer: C=AU, ST=Some-State, O=Internet Widgits Pty Ltd, CN=signing CA
        Validity
            Not Before: Jun  7 15:15:01 2014 GMT
            Not After : Jun  4 15:15:01 2024 GMT
        Subject: C=AU, ST=Some-State, O=Internet Widgits Pty Ltd, CN=second.foobar.com
        Subject Public Key Info:
            Public Key Algorithm: rsaEncryption
                Public-Key: (1024 bit)
                Modulus:
                    00:e4:13:e7:f0:97:87:62:5f:e2:cc:79:b2:55:77:
                    d7:c2:b8:b9:d3:51:b9:72:6f:15:13:b5:94:e7:54:
                    8e:c1:18:37:6c:d8:0b:90:5a:a4:5d:a5:0e:42:74:
                    4e:7e:ad:e9:34:37:a7:6d:e5:30:c6:41:7b:f8:85:
                    e9:61:84:cc:d8:80:f2:7f:af:6e:22:bc:2c:ce:27:
                    1f:4a:fd:36:bc:1c:9d:f5:5f:e9:b4:96:0f:88:31:
                    8f:a7:6d:38:54:a8:7e:2c:1c:1c:72:8c:2f:0b:0a:
                    71:6f:d2:d5:c6:ac:e9:e0:e9:7e:72:46:43:a0:00:
                    60:33:62:d7:7a:ff:1e:7f:77
                Exponent: 65537 (0x10001)
        X509v3 extensions:
            X509v3 Basic Constraints: critical
                CA:FALSE
            X509v3 Key Usage: 
                Digital Signature, Non Repudiation, Key Encipherment
            X509v3 Subject Key Identifier: 
                4A:F7:E8:EB:57:1B:AB:49:41:23:E8:02:64:23:83:23:17:0E:CA:05
            X509v3 Authority Key Identifier: 
                keyid:70:46:49:1B:C2:71:2E:C0:50:D3:4B:18:58:8A:C4:10:1C:AE:B3:59

            X509v3 Subject Alternative Name: 
                DNS:foobar.com, DNS:foo.foobar.com
    Signature Algorithm: sha1WithRSAEncryption
         77:a1:83:7f:ed:4f:5c:a5:86:55:11:2a:6e:89:0c:07:be:0e:
         1e:5a:b8:94:7f:0d:74:ef:e1:b4:e4:72:68:96:95:2b:00:a2:
         29:a2:4e:16:cd:e8:04:fc:e7:ac:73:04:9a:fc:2a:5d:c2:59:
         aa:92:0f:7c:fb:25:39:f9:b9:ed:d2:1a:04:93:8f:e0:d2:41:
         eb:81:8d:c6:89:b0:54:de:1d:24:e6:6d:3b:a7:e2:80:61:32:
         98:22:4d:a1:fb:61:5c:ed:15:87:ba:26:5e:91:53:54:47:a9:
         76:b8:4b:bb:00:53:5b:c6:3c:8c:a4:80:d0:13:fa:b0:3c:d4:
         0f:44
-----BEGIN CERTIFICATE-----
MIICtzCCAiCgAwIBAgIBCDANBgkqhkiG9w0BAQUFADBaMQswCQYDVQQGEwJBVTET
MBEGA1UECAwKU29tZS1TdGF0ZTEhMB8GA1UECgwYSW50ZXJuZXQgV2lkZ2l0cyBQ
dHkgTHRkMRMwEQYDVQQDDApzaWduaW5nIENBMB4XDTE0MDYwNzE1MTUwMVoXDTI0
MDYwNDE1MTUwMVowYTELMAkGA1UEBhMCQVUxEzARBgNVBAgMClNvbWUtU3RhdGUx
ITAfBgNVBAoMGEludGVybmV0IFdpZGdpdHMgUHR5IEx0ZDEaMBgGA1UEAwwRc2Vj
b25kLmZvb2Jhci5jb20wgZ8wDQYJKoZIhvcNAQEBBQADgY0AMIGJAoGBAOQT5/CX
h2Jf4sx5slV318K4udNRuXJvFRO1lOdUjsEYN2zYC5BapF2lDkJ0Tn6t6TQ3p23l
MMZBe/iF6WGEzNiA8n+vbiK8LM4nH0r9NrwcnfVf6bSWD4gxj6dtOFSofiwcHHKM
LwsKcW/S1cas6eDpfnJGQ6AAYDNi13r/Hn93AgMBAAGjgYUwgYIwDAYDVR0TAQH/
BAIwADALBgNVHQ8EBAMCBeAwHQYDVR0OBBYEFEr36OtXG6tJQSPoAmQjgyMXDsoF
MB8GA1UdIwQYMBaAFHBGSRvCcS7AUNNLGFiKxBAcrrNZMCUGA1UdEQQeMByCCmZv
b2Jhci5jb22CDmZvby5mb29iYXIuY29tMA0GCSqGSIb3DQEBBQUAA4GBAHehg3/t
T1ylhlURKm6JDAe+Dh5auJR/DXTv4bTkcmiWlSsAoimiThbN6AT856xzBJr8Kl3C
WaqSD3z7JTn5ue3SGgSTj+DSQeuBjcaJsFTeHSTmbTun4oBhMpgiTaH7YVztFYe6
Jl6RU1RHqXa4S7sAU1vGPIykgNAT+rA81A9E
-----END CERTIFICATE-----
