Certificate:
    Data:
        Version: 3 (0x2)
        Serial Number: 1 (0x1)
    Signature Algorithm: sha1WithRSAEncryption
        Issuer: C=AU, ST=Some-State, O=Internet Widgits Pty Ltd, CN=signing CA
        Validity
            Not Before: Jun  7 14:46:24 2014 GMT
            Not After : Jun  4 14:46:24 2024 GMT
        Subject: C=AU, ST=Some-State, O=Internet Widgits Pty Ltd, CN=second.foobar.com
        Subject Public Key Info:
            Public Key Algorithm: rsaEncryption
                Public-Key: (1024 bit)
                Modulus:
                    00:e4:13:e7:f0:97:87:62:5f:e2:cc:79:b2:55:77:
                    d7:c2:b8:b9:d3:51:b9:72:6f:15:13:b5:94:e7:54:
                    8e:c1:18:37:6c:d8:0b:90:5a:a4:5d:a5:0e:42:74:
                    4e:7e:ad:e9:34:37:a7:6d:e5:30:c6:41:7b:f8:85:
                    e9:61:84:cc:d8:80:f2:7f:af:6e:22:bc:2c:ce:27:
                    1f:4a:fd:36:bc:1c:9d:f5:5f:e9:b4:96:0f:88:31:
                    8f:a7:6d:38:54:a8:7e:2c:1c:1c:72:8c:2f:0b:0a:
                    71:6f:d2:d5:c6:ac:e9:e0:e9:7e:72:46:43:a0:00:
                    60:33:62:d7:7a:ff:1e:7f:77
                Exponent: 65537 (0x10001)
        X509v3 extensions:
            X509v3 Basic Constraints: critical
                CA:FALSE
            X509v3 Key Usage: 
                Digital Signature, Non Repudiation, Key Encipherment
            X509v3 Subject Key Identifier: 
                4A:F7:E8:EB:57:1B:AB:49:41:23:E8:02:64:23:83:23:17:0E:CA:05
            X509v3 Authority Key Identifier: 
                keyid:70:46:49:1B:C2:71:2E:C0:50:D3:4B:18:58:8A:C4:10:1C:AE:B3:59

    Signature Algorithm: sha1WithRSAEncryption
         ba:87:d8:55:8c:17:44:eb:c3:5b:9e:9a:d2:c7:78:d9:b0:00:
         6e:a0:be:68:ed:a6:70:06:46:5b:79:f6:39:1b:d2:be:2d:d1:
         22:4b:28:a7:4d:f5:53:f1:e1:10:c0:fd:11:47:cd:b0:0f:57:
         c0:4f:dc:c8:09:0d:77:01:2c:21:e4:37:99:69:81:cb:87:d1:
         64:60:9e:92:56:9b:27:36:e9:e4:d8:5f:86:60:a8:d9:8f:0e:
         75:b1:1a:ef:d7:3a:9b:59:04:2c:e4:7f:16:73:09:b1:86:91:
         03:23:37:25:f3:4c:0a:77:3d:e1:f7:0e:29:35:c1:64:4d:e2:
         62:bb
-----BEGIN CERTIFICATE-----
MIICjjCCAfegAwIBAgIBATANBgkqhkiG9w0BAQUFADBaMQswCQYDVQQGEwJBVTET
MBEGA1UECAwKU29tZS1TdGF0ZTEhMB8GA1UECgwYSW50ZXJuZXQgV2lkZ2l0cyBQ
dHkgTHRkMRMwEQYDVQQDDApzaWduaW5nIENBMB4XDTE0MDYwNzE0NDYyNFoXDTI0
MDYwNDE0NDYyNFowYTELMAkGA1UEBhMCQVUxEzARBgNVBAgMClNvbWUtU3RhdGUx
ITAfBgNVBAoMGEludGVybmV0IFdpZGdpdHMgUHR5IEx0ZDEaMBgGA1UEAwwRc2Vj
b25kLmZvb2Jhci5jb20wgZ8wDQYJKoZIhvcNAQEBBQADgY0AMIGJAoGBAOQT5/CX
h2Jf4sx5slV318K4udNRuXJvFRO1lOdUjsEYN2zYC5BapF2lDkJ0Tn6t6TQ3p23l
MMZBe/iF6WGEzNiA8n+vbiK8LM4nH0r9NrwcnfVf6bSWD4gxj6dtOFSofiwcHHKM
LwsKcW/S1cas6eDpfnJGQ6AAYDNi13r/Hn93AgMBAAGjXTBbMAwGA1UdEwEB/wQC
MAAwCwYDVR0PBAQDAgXgMB0GA1UdDgQWBBRK9+jrVxurSUEj6AJkI4MjFw7KBTAf
BgNVHSMEGDAWgBRwRkkbwnEuwFDTSxhYisQQHK6zWTANBgkqhkiG9w0BAQUFAAOB
gQC6h9hVjBdE68NbnprSx3jZsABuoL5o7aZwBkZbefY5G9K+LdEiSyinTfVT8eEQ
wP0RR82wD1fAT9zICQ13ASwh5DeZaYHLh9FkYJ6SVpsnNunk2F+GYKjZjw51sRrv
1zqbWQQs5H8WcwmxhpEDIzcl80wKdz3h9w4pNcFkTeJiuw==
-----END CERTIFICATE-----
