Certificate:
    Data:
        Version: 3 (0x2)
        Serial Number: 9 (0x9)
    Signature Algorithm: sha1WithRSAEncryption
        Issuer: C=AU, ST=Some-State, O=Internet Widgits Pty Ltd, CN=signing CA
        Validity
            Not Before: Jun  7 15:15:26 2014 GMT
            Not After : Jun  4 15:15:26 2024 GMT
        Subject: C=AU, ST=Some-State, O=Internet Widgits Pty Ltd, CN=second.foobar.com
        Subject Public Key Info:
            Public Key Algorithm: rsaEncryption
                Public-Key: (1024 bit)
                Modulus:
                    00:e4:13:e7:f0:97:87:62:5f:e2:cc:79:b2:55:77:
                    d7:c2:b8:b9:d3:51:b9:72:6f:15:13:b5:94:e7:54:
                    8e:c1:18:37:6c:d8:0b:90:5a:a4:5d:a5:0e:42:74:
                    4e:7e:ad:e9:34:37:a7:6d:e5:30:c6:41:7b:f8:85:
                    e9:61:84:cc:d8:80:f2:7f:af:6e:22:bc:2c:ce:27:
                    1f:4a:fd:36:bc:1c:9d:f5:5f:e9:b4:96:0f:88:31:
                    8f:a7:6d:38:54:a8:7e:2c:1c:1c:72:8c:2f:0b:0a:
                    71:6f:d2:d5:c6:ac:e9:e0:e9:7e:72:46:43:a0:00:
                    60:33:62:d7:7a:ff:1e:7f:77
                Exponent: 65537 (0x10001)
        X509v3 extensions:
            X509v3 Basic Constraints: critical
                CA:FALSE
            X509v3 Key Usage: 
                Digital Signature, Non Repudiation, Key Encipherment
            X509v3 Subject Key Identifier: 
                4A:F7:E8:EB:57:1B:AB:49:41:23:E8:02:64:23:83:23:17:0E:CA:05
            X509v3 Authority Key Identifier: 
                keyid:70:46:49:1B:C2:71:2E:C0:50:D3:4B:18:58:8A:C4:10:1C:AE:B3:59

            X509v3 Subject Alternative Name: 
                DNS:*.foobar.com, DNS:foo.foobar.com
    Signature Algorithm: sha1WithRSAEncryption
         c8:c4:d0:4a:98:c8:d1:92:54:da:e0:a8:71:05:4e:76:e0:51:
         5f:5f:c0:3f:38:9d:d4:d2:ea:68:c1:61:4c:67:74:22:19:54:
         a1:1d:cf:2a:41:69:2a:2b:82:e8:f6:ca:54:4f:c2:bd:5a:0e:
         f0:e1:c8:12:5f:9a:75:c0:d2:23:66:ea:dd:a7:2f:a6:7e:ae:
         38:7e:14:2a:f4:d1:90:26:91:cb:0a:9a:5d:de:d6:25:bd:97:
         34:c0:4f:8e:3b:3c:fc:7b:ee:c7:6c:6f:80:e6:a9:4f:6d:87:
         94:d8:6d:cf:be:92:5b:7e:23:e5:eb:55:cb:5c:9b:27:bf:78:
         ce:0d
-----BEGIN CERTIFICATE-----
MIICuTCCAiKgAwIBAgIBCTANBgkqhkiG9w0BAQUFADBaMQswCQYDVQQGEwJBVTET
MBEGA1UECAwKU29tZS1TdGF0ZTEhMB8GA1UECgwYSW50ZXJuZXQgV2lkZ2l0cyBQ
dHkgTHRkMRMwEQYDVQQDDApzaWduaW5nIENBMB4XDTE0MDYwNzE1MTUyNloXDTI0
MDYwNDE1MTUyNlowYTELMAkGA1UEBhMCQVUxEzARBgNVBAgMClNvbWUtU3RhdGUx
ITAfBgNVBAoMGEludGVybmV0IFdpZGdpdHMgUHR5IEx0ZDEaMBgGA1UEAwwRc2Vj
b25kLmZvb2Jhci5jb20wgZ8wDQYJKoZIhvcNAQEBBQADgY0AMIGJAoGBAOQT5/CX
h2Jf4sx5slV318K4udNRuXJvFRO1lOdUjsEYN2zYC5BapF2lDkJ0Tn6t6TQ3p23l
MMZBe/iF6WGEzNiA8n+vbiK8LM4nH0r9NrwcnfVf6bSWD4gxj6dtOFSofiwcHHKM
LwsKcW/S1cas6eDpfnJGQ6AAYDNi13r/Hn93AgMBAAGjgYcwgYQwDAYDVR0TAQH/
BAIwADALBgNVHQ8EBAMCBeAwHQYDVR0OBBYEFEr36OtXG6tJQSPoAmQjgyMXDsoF
MB8GA1UdIwQYMBaAFHBGSRvCcS7AUNNLGFiKxBAcrrNZMCcGA1UdEQQgMB6CDCou
Zm9vYmFyLmNvbYIOZm9vLmZvb2Jhci5jb20wDQYJKoZIhvcNAQEFBQADgYEAyMTQ
SpjI0ZJU2uCocQVOduBRX1/APzid1NLqaMFhTGd0IhlUoR3PKkFpKiuC6PbKVE/C
vVoO8OHIEl+adcDSI2bq3acvpn6uOH4UKvTRkCaRywqaXd7WJb2XNMBPjjs8/Hvu
x2xvgOapT22HlNhtz76SW34j5etVy1ybJ794zg0=
-----END CERTIFICATE-----
