Certificate:
    Data:
        Version: 3 (0x2)
        Serial Number: 2 (0x2)
    Signature Algorithm: sha1WithRSAEncryption
        Issuer: C=AU, ST=Some-State, O=Internet Widgits Pty Ltd, CN=signing CA
        Validity
            Not Before: Jun  7 15:09:33 2014 GMT
            Not After : Jun  4 15:09:33 2024 GMT
        Subject: C=AU, ST=Some-State, O=Internet Widgits Pty Ltd, CN=second.foobar.com
        Subject Public Key Info:
            Public Key Algorithm: rsaEncryption
                Public-Key: (1024 bit)
                Modulus:
                    00:e4:13:e7:f0:97:87:62:5f:e2:cc:79:b2:55:77:
                    d7:c2:b8:b9:d3:51:b9:72:6f:15:13:b5:94:e7:54:
                    8e:c1:18:37:6c:d8:0b:90:5a:a4:5d:a5:0e:42:74:
                    4e:7e:ad:e9:34:37:a7:6d:e5:30:c6:41:7b:f8:85:
                    e9:61:84:cc:d8:80:f2:7f:af:6e:22:bc:2c:ce:27:
                    1f:4a:fd:36:bc:1c:9d:f5:5f:e9:b4:96:0f:88:31:
                    8f:a7:6d:38:54:a8:7e:2c:1c:1c:72:8c:2f:0b:0a:
                    71:6f:d2:d5:c6:ac:e9:e0:e9:7e:72:46:43:a0:00:
                    60:33:62:d7:7a:ff:1e:7f:77
                Exponent: 65537 (0x10001)
        X509v3 extensions:
            X509v3 Basic Constraints: critical
                CA:TRUE
            X509v3 Key Usage: 
                Digital Signature, Non Repudiation, Key Encipherment
            X509v3 Subject Key Identifier: 
                4A:F7:E8:EB:57:1B:AB:49:41:23:E8:02:64:23:83:23:17:0E:CA:05
            X509v3 Authority Key Identifier: 
                keyid:70:46:49:1B:C2:71:2E:C0:50:D3:4B:18:58:8A:C4:10:1C:AE:B3:59

    Signature Algorithm: sha1WithRSAEncryption
         5d:9d:36:2b:33:c8:43:c8:78:13:10:c7:a8:7f:ac:60:f6:19:
         46:36:24:8b:8e:db:20:00:b5:f8:c7:a5:ac:49:56:a6:e1:e6:
         dd:fd:07:10:44:2b:aa:42:f5:76:56:81:86:3d:74:53:03:24:
         e0:9a:6e:d7:e6:3c:d7:31:87:82:2a:72:fc:67:8f:0e:5a:3b:
         05:c9:5c:52:61:6d:a0:4d:78:ba:8d:97:a5:4c:e1:a6:07:43:
         61:81:c5:94:84:37:47:91:aa:13:b6:57:19:af:57:8d:82:8a:
         50:eb:cc:07:76:cb:1b:35:c3:db:98:2d:ab:d6:cf:d2:c3:a8:
         e5:1b
-----BEGIN CERTIFICATE-----
MIICkTCCAfqgAwIBAgIBAjANBgkqhkiG9w0BAQUFADBaMQswCQYDVQQGEwJBVTET
MBEGA1UECAwKU29tZS1TdGF0ZTEhMB8GA1UECgwYSW50ZXJuZXQgV2lkZ2l0cyBQ
dHkgTHRkMRMwEQYDVQQDDApzaWduaW5nIENBMB4XDTE0MDYwNzE1MDkzM1oXDTI0
MDYwNDE1MDkzM1owYTELMAkGA1UEBhMCQVUxEzARBgNVBAgMClNvbWUtU3RhdGUx
ITAfBgNVBAoMGEludGVybmV0IFdpZGdpdHMgUHR5IEx0ZDEaMBgGA1UEAwwRc2Vj
b25kLmZvb2Jhci5jb20wgZ8wDQYJKoZIhvcNAQEBBQADgY0AMIGJAoGBAOQT5/CX
h2Jf4sx5slV318K4udNRuXJvFRO1lOdUjsEYN2zYC5BapF2lDkJ0Tn6t6TQ3p23l
MMZBe/iF6WGEzNiA8n+vbiK8LM4nH0r9NrwcnfVf6bSWD4gxj6dtOFSofiwcHHKM
LwsKcW/S1cas6eDpfnJGQ6AAYDNi13r/Hn93AgMBAAGjYDBeMA8GA1UdEwEB/wQF
MAMBAf8wCwYDVR0PBAQDAgXgMB0GA1UdDgQWBBRK9+jrVxurSUEj6AJkI4MjFw7K
BTAfBgNVHSMEGDAWgBRwRkkbwnEuwFDTSxhYisQQHK6zWTANBgkqhkiG9w0BAQUF
AAOBgQBdnTYrM8hDyHgTEMeof6xg9hlGNiSLjtsgALX4x6WsSVam4ebd/QcQRCuq
QvV2VoGGPXRTAyTgmm7X5jzXMYeCKnL8Z48OWjsFyVxSYW2gTXi6jZelTOGmB0Nh
gcWUhDdHkaoTtlcZr1eNgopQ68wHdssbNcPbmC2r1s/Sw6jlGw==
-----END CERTIFICATE-----
