Certificate:
    Data:
        Version: 3 (0x2)
        Serial Number: 5 (0x5)
    Signature Algorithm: sha1WithRSAEncryption
        Issuer: C=AU, ST=Some-State, O=Internet Widgits Pty Ltd, CN=signing CA
        Validity
            Not Before: Jun  7 15:12:35 2014 GMT
            Not After : Jun  4 15:12:35 2024 GMT
        Subject: C=AU, ST=Some-State, O=Internet Widgits Pty Ltd, CN=second.foobar.com
        Subject Public Key Info:
            Public Key Algorithm: rsaEncryption
                Public-Key: (1024 bit)
                Modulus:
                    00:e4:13:e7:f0:97:87:62:5f:e2:cc:79:b2:55:77:
                    d7:c2:b8:b9:d3:51:b9:72:6f:15:13:b5:94:e7:54:
                    8e:c1:18:37:6c:d8:0b:90:5a:a4:5d:a5:0e:42:74:
                    4e:7e:ad:e9:34:37:a7:6d:e5:30:c6:41:7b:f8:85:
                    e9:61:84:cc:d8:80:f2:7f:af:6e:22:bc:2c:ce:27:
                    1f:4a:fd:36:bc:1c:9d:f5:5f:e9:b4:96:0f:88:31:
                    8f:a7:6d:38:54:a8:7e:2c:1c:1c:72:8c:2f:0b:0a:
                    71:6f:d2:d5:c6:ac:e9:e0:e9:7e:72:46:43:a0:00:
                    60:33:62:d7:7a:ff:1e:7f:77
                Exponent: 65537 (0x10001)
        X509v3 extensions:
            X509v3 Basic Constraints: critical
                CA:FALSE
            X509v3 Key Usage: 
                Non Repudiation
            X509v3 Subject Key Identifier: 
                4A:F7:E8:EB:57:1B:AB:49:41:23:E8:02:64:23:83:23:17:0E:CA:05
            X509v3 Authority Key Identifier: 
                keyid:70:46:49:1B:C2:71:2E:C0:50:D3:4B:18:58:8A:C4:10:1C:AE:B3:59

    Signature Algorithm: sha1WithRSAEncryption
         a4:9d:d9:79:78:68:e8:e3:2f:ac:3b:25:6c:f3:05:8d:ab:08:
         3a:ff:a9:85:4e:c2:77:df:38:56:50:d3:7a:77:1f:fd:53:f6:
         eb:f0:43:2f:39:61:d0:f6:1b:c8:3b:30:a4:53:c2:a4:eb:02:
         02:ec:11:ee:d6:4c:e9:d5:25:2e:15:ce:e3:c5:9a:04:e3:00:
         45:34:c5:26:69:b4:89:51:fa:41:f5:0a:5e:60:23:b7:ef:f7:
         3e:c9:7a:94:57:31:b1:86:58:31:34:df:25:56:03:a2:3e:c9:
         3f:db:43:58:39:c7:1a:a5:1f:d8:49:cc:09:96:da:0b:e7:21:
         b6:06
-----BEGIN CERTIFICATE-----
MIICjjCCAfegAwIBAgIBBTANBgkqhkiG9w0BAQUFADBaMQswCQYDVQQGEwJBVTET
MBEGA1UECAwKU29tZS1TdGF0ZTEhMB8GA1UECgwYSW50ZXJuZXQgV2lkZ2l0cyBQ
dHkgTHRkMRMwEQYDVQQDDApzaWduaW5nIENBMB4XDTE0MDYwNzE1MTIzNVoXDTI0
MDYwNDE1MTIzNVowYTELMAkGA1UEBhMCQVUxEzARBgNVBAgMClNvbWUtU3RhdGUx
ITAfBgNVBAoMGEludGVybmV0IFdpZGdpdHMgUHR5IEx0ZDEaMBgGA1UEAwwRc2Vj
b25kLmZvb2Jhci5jb20wgZ8wDQYJKoZIhvcNAQEBBQADgY0AMIGJAoGBAOQT5/CX
h2Jf4sx5slV318K4udNRuXJvFRO1lOdUjsEYN2zYC5BapF2lDkJ0Tn6t6TQ3p23l
MMZBe/iF6WGEzNiA8n+vbiK8LM4nH0r9NrwcnfVf6bSWD4gxj6dtOFSofiwcHHKM
LwsKcW/S1cas6eDpfnJGQ6AAYDNi13r/Hn93AgMBAAGjXTBbMAwGA1UdEwEB/wQC
MAAwCwYDVR0PBAQDAgZAMB0GA1UdDgQWBBRK9+jrVxurSUEj6AJkI4MjFw7KBTAf
BgNVHSMEGDAWgBRwRkkbwnEuwFDTSxhYisQQHK6zWTANBgkqhkiG9w0BAQUFAAOB
gQCkndl5eGjo4y+sOyVs8wWNqwg6/6mFTsJ33zhWUNN6dx/9U/br8EMvOWHQ9hvI
OzCkU8Kk6wIC7BHu1kzp1SUuFc7jxZoE4wBFNMUmabSJUfpB9QpeYCO37/c+yXqU
VzGxhlgxNN8lVgOiPsk/20NYOccapR/YScwJltoL5yG2Bg==
-----END CERTIFICATE-----
