Certificate:
    Data:
        Version: 3 (0x2)
        Serial Number: 2 (0x2)
    Signature Algorithm: sha1WithRSAEncryption
        Issuer: C=AU, ST=Some-State, O=Internet Widgits Pty Ltd
        Validity
            Not Before: Jun  6 17:16:32 2014 GMT
            Not After : Jun  3 17:16:32 2024 GMT
        Subject: C=AU, ST=Some-State, O=Internet Widgits Pty Ltd, CN=blafasel.com
        Subject Public Key Info:
            Public Key Algorithm: rsaEncryption
                Public-Key: (1024 bit)
                Modulus:
                    00:e4:13:e7:f0:97:87:62:5f:e2:cc:79:b2:55:77:
                    d7:c2:b8:b9:d3:51:b9:72:6f:15:13:b5:94:e7:54:
                    8e:c1:18:37:6c:d8:0b:90:5a:a4:5d:a5:0e:42:74:
                    4e:7e:ad:e9:34:37:a7:6d:e5:30:c6:41:7b:f8:85:
                    e9:61:84:cc:d8:80:f2:7f:af:6e:22:bc:2c:ce:27:
                    1f:4a:fd:36:bc:1c:9d:f5:5f:e9:b4:96:0f:88:31:
                    8f:a7:6d:38:54:a8:7e:2c:1c:1c:72:8c:2f:0b:0a:
                    71:6f:d2:d5:c6:ac:e9:e0:e9:7e:72:46:43:a0:00:
                    60:33:62:d7:7a:ff:1e:7f:77
                Exponent: 65537 (0x10001)
        X509v3 extensions:
            X509v3 Basic Constraints: 
                CA:FALSE
            X509v3 Key Usage: 
                Digital Signature, Non Repudiation, Key Encipherment
            X509v3 Subject Key Identifier: 
                4A:F7:E8:EB:57:1B:AB:49:41:23:E8:02:64:23:83:23:17:0E:CA:05
            X509v3 Authority Key Identifier: 
                keyid:9F:73:10:61:42:11:4D:82:CA:F0:FF:37:E9:17:C3:20:C8:DB:1E:4A

            X509v3 Subject Alternative Name: 
                DNS:foo.foobar.com, DNS:foobar.com
            1.2.3.4: critical
                ..Some random data
    Signature Algorithm: sha1WithRSAEncryption
         59:43:8c:77:b5:d8:ad:98:b3:2c:e3:47:60:5b:b0:a6:b4:b5:
         1a:22:b2:16:15:d0:2d:6f:9a:a0:2b:f3:45:c8:77:9c:dd:e1:
         82:1d:55:9d:be:ff:53:45:2b:82:d1:ca:fd:a8:7f:6a:2d:47:
         b2:79:bc:70:e8:48:8e:48:3a:5f:0b:d9:ee:40:be:87:77:5e:
         0e:69:45:ff:8e:06:b1:b5:87:eb:da:ea:26:d7:7d:e5:b3:d6:
         e3:4d:db:53:53:dd:5d:3f:7e:6b:98:a6:bd:db:79:35:f1:13:
         b4:1b:e1:8a:9c:84:f9:32:20:31:60:27:8d:e4:1c:c3:f9:dd:
         6d:56
-----BEGIN CERTIFICATE-----
MIICuDCCAiGgAwIBAgIBAjANBgkqhkiG9w0BAQUFADBFMQswCQYDVQQGEwJBVTET
MBEGA1UECAwKU29tZS1TdGF0ZTEhMB8GA1UECgwYSW50ZXJuZXQgV2lkZ2l0cyBQ
dHkgTHRkMB4XDTE0MDYwNjE3MTYzMloXDTI0MDYwMzE3MTYzMlowXDELMAkGA1UE
BhMCQVUxEzARBgNVBAgMClNvbWUtU3RhdGUxITAfBgNVBAoMGEludGVybmV0IFdp
ZGdpdHMgUHR5IEx0ZDEVMBMGA1UEAwwMYmxhZmFzZWwuY29tMIGfMA0GCSqGSIb3
DQEBAQUAA4GNADCBiQKBgQDkE+fwl4diX+LMebJVd9fCuLnTUblybxUTtZTnVI7B
GDds2AuQWqRdpQ5CdE5+rek0N6dt5TDGQXv4helhhMzYgPJ/r24ivCzOJx9K/Ta8
HJ31X+m0lg+IMY+nbThUqH4sHBxyjC8LCnFv0tXGrOng6X5yRkOgAGAzYtd6/x5/
dwIDAQABo4GgMIGdMAkGA1UdEwQCMAAwCwYDVR0PBAQDAgXgMB0GA1UdDgQWBBRK
9+jrVxurSUEj6AJkI4MjFw7KBTAfBgNVHSMEGDAWgBSfcxBhQhFNgsrw/zfpF8Mg
yNseSjAlBgNVHREEHjAcgg5mb28uZm9vYmFyLmNvbYIKZm9vYmFyLmNvbTAcBgMq
AwQBAf8EEgwQU29tZSByYW5kb20gZGF0YTANBgkqhkiG9w0BAQUFAAOBgQBZQ4x3
tditmLMs40dgW7CmtLUaIrIWFdAtb5qgK/NFyHec3eGCHVWdvv9TRSuC0cr9qH9q
LUeyebxw6EiOSDpfC9nuQL6Hd14OaUX/jgaxtYfr2uom133ls9bjTdtTU91dP35r
mKa923k18RO0G+GKnIT5MiAxYCeN5BzD+d1tVg==
-----END CERTIFICATE-----
