Certificate:
    Data:
        Version: 3 (0x2)
        Serial Number: 15 (0xf)
    Signature Algorithm: sha1WithRSAEncryption
        Issuer: C=AU, ST=Some-State, O=Internet Widgits Pty Ltd
        Validity
            Not Before: Jun  7 14:38:14 2014 GMT
            Not After : Jun  4 14:38:14 2024 GMT
        Subject: C=AU, ST=Some-State, O=Internet Widgits Pty Ltd, CN=any.foobar.com
        Subject Public Key Info:
            Public Key Algorithm: rsaEncryption
                Public-Key: (1024 bit)
                Modulus:
                    00:e4:13:e7:f0:97:87:62:5f:e2:cc:79:b2:55:77:
                    d7:c2:b8:b9:d3:51:b9:72:6f:15:13:b5:94:e7:54:
                    8e:c1:18:37:6c:d8:0b:90:5a:a4:5d:a5:0e:42:74:
                    4e:7e:ad:e9:34:37:a7:6d:e5:30:c6:41:7b:f8:85:
                    e9:61:84:cc:d8:80:f2:7f:af:6e:22:bc:2c:ce:27:
                    1f:4a:fd:36:bc:1c:9d:f5:5f:e9:b4:96:0f:88:31:
                    8f:a7:6d:38:54:a8:7e:2c:1c:1c:72:8c:2f:0b:0a:
                    71:6f:d2:d5:c6:ac:e9:e0:e9:7e:72:46:43:a0:00:
                    60:33:62:d7:7a:ff:1e:7f:77
                Exponent: 65537 (0x10001)
        X509v3 extensions:
            X509v3 Basic Constraints: critical
                CA:FALSE
            X509v3 Key Usage: 
                Digital Signature, Non Repudiation, Key Encipherment
            X509v3 Extended Key Usage: 
                Any Extended Key Usage, Time Stamping
            X509v3 Subject Key Identifier: 
                4A:F7:E8:EB:57:1B:AB:49:41:23:E8:02:64:23:83:23:17:0E:CA:05
            X509v3 Authority Key Identifier: 
                keyid:9F:73:10:61:42:11:4D:82:CA:F0:FF:37:E9:17:C3:20:C8:DB:1E:4A

    Signature Algorithm: sha1WithRSAEncryption
         91:08:7d:2c:a4:b7:85:af:62:c8:21:96:8a:1d:1f:81:fa:a4:
         67:d4:2b:78:62:44:e6:83:c8:a4:3c:fd:64:f0:b9:fa:bd:c4:
         99:a4:dd:82:f0:8a:75:8f:d1:4b:dd:f7:d3:1b:79:4f:d4:2d:
         16:b1:86:23:54:93:7f:3e:99:b5:4f:f3:e4:fe:6a:76:21:d4:
         b0:d5:62:2d:de:63:a2:3a:c7:ae:f3:6d:68:c6:fe:a9:2f:e4:
         ef:36:85:42:85:f3:d3:0e:61:44:53:70:93:d0:b2:d4:06:f2:
         d7:96:e8:e1:b4:8d:9f:46:a5:a4:0b:08:20:41:8a:ee:04:c8:
         63:4d
-----BEGIN CERTIFICATE-----
MIICkTCCAfqgAwIBAgIBDzANBgkqhkiG9w0BAQUFADBFMQswCQYDVQQGEwJBVTET
MBEGA1UECAwKU29tZS1TdGF0ZTEhMB8GA1UECgwYSW50ZXJuZXQgV2lkZ2l0cyBQ
dHkgTHRkMB4XDTE0MDYwNzE0MzgxNFoXDTI0MDYwNDE0MzgxNFowXjELMAkGA1UE
BhMCQVUxEzARBgNVBAgMClNvbWUtU3RhdGUxITAfBgNVBAoMGEludGVybmV0IFdp
ZGdpdHMgUHR5IEx0ZDEXMBUGA1UEAwwOYW55LmZvb2Jhci5jb20wgZ8wDQYJKoZI
hvcNAQEBBQADgY0AMIGJAoGBAOQT5/CXh2Jf4sx5slV318K4udNRuXJvFRO1lOdU
jsEYN2zYC5BapF2lDkJ0Tn6t6TQ3p23lMMZBe/iF6WGEzNiA8n+vbiK8LM4nH0r9
NrwcnfVf6bSWD4gxj6dtOFSofiwcHHKMLwsKcW/S1cas6eDpfnJGQ6AAYDNi13r/
Hn93AgMBAAGjeDB2MAwGA1UdEwEB/wQCMAAwCwYDVR0PBAQDAgXgMBkGA1UdJQQS
MBAGBFUdJQAGCCsGAQUFBwMIMB0GA1UdDgQWBBRK9+jrVxurSUEj6AJkI4MjFw7K
BTAfBgNVHSMEGDAWgBSfcxBhQhFNgsrw/zfpF8MgyNseSjANBgkqhkiG9w0BAQUF
AAOBgQCRCH0spLeFr2LIIZaKHR+B+qRn1Ct4YkTmg8ikPP1k8Ln6vcSZpN2C8Ip1
j9FL3ffTG3lP1C0WsYYjVJN/Ppm1T/Pk/mp2IdSw1WIt3mOiOseu821oxv6pL+Tv
NoVChfPTDmFEU3CT0LLUBvLXlujhtI2fRqWkCwggQYruBMhjTQ==
-----END CERTIFICATE-----
