Certificate:
    Data:
        Version: 3 (0x2)
        Serial Number: 20 (0x14)
    Signature Algorithm: sha1WithRSAEncryption
        Issuer: C=AU, ST=Some-State, O=Internet Widgits Pty Ltd
        Validity
            Not Before: Jun  7 15:07:08 2014 GMT
            Not After : Jun  4 15:07:08 2024 GMT
        Subject: C=AU, ST=Some-State, O=Internet Widgits Pty Ltd, CN=signing CA
        Subject Public Key Info:
            Public Key Algorithm: rsaEncryption
                Public-Key: (1024 bit)
                Modulus:
                    00:ca:53:26:f9:ea:f4:1b:8a:70:c0:8c:17:17:c4:
                    af:69:61:7a:62:8f:79:81:9e:16:9c:22:5c:64:25:
                    fa:b3:be:bd:d1:84:98:7b:06:18:35:92:3a:c6:4b:
                    77:b4:90:61:6d:e1:6e:e9:bd:0a:72:a7:fb:27:51:
                    ac:c6:43:5f:b9:60:41:a7:af:28:ff:6b:62:6a:ff:
                    54:16:06:84:48:94:4e:26:fe:bb:2b:f3:b2:8a:be:
                    a2:a1:88:d1:4c:89:8e:29:60:41:9f:16:55:31:55:
                    86:c0:90:f4:b0:5e:63:7d:18:d8:d9:fb:0a:f3:df:
                    92:90:b1:78:e6:2e:c8:09:15
                Exponent: 65537 (0x10001)
        X509v3 extensions:
            X509v3 Subject Key Identifier: 
                70:46:49:1B:C2:71:2E:C0:50:D3:4B:18:58:8A:C4:10:1C:AE:B3:59
            X509v3 Authority Key Identifier: 
                keyid:9F:73:10:61:42:11:4D:82:CA:F0:FF:37:E9:17:C3:20:C8:DB:1E:4A

            X509v3 Basic Constraints: critical
                CA:TRUE
            X509v3 Key Usage: 
                Certificate Sign, CRL Sign
            1.2.3.4: critical
                ..Some random data
    Signature Algorithm: sha1WithRSAEncryption
         8f:f1:30:c0:f0:33:18:2f:09:bc:cc:70:4b:f5:9a:e5:7c:33:
         d7:39:5a:af:bc:10:f9:b4:bf:ce:b5:07:67:26:87:b3:31:67:
         ce:41:a3:23:ba:51:85:10:dd:41:2d:e0:16:a0:a3:d0:0c:89:
         92:d0:a8:bc:a9:b2:73:ca:7e:0a:4b:2c:ff:66:f7:61:75:43:
         f1:07:32:6b:ec:61:76:35:8c:4d:08:e8:18:d4:ce:75:3e:25:
         1f:cc:0f:66:a0:c4:25:cb:6a:f1:04:da:ad:e6:e7:0a:62:f4:
         a5:88:de:ca:70:12:a1:33:05:85:e2:ea:27:97:ac:7d:ef:f8:
         0b:9c
-----BEGIN CERTIFICATE-----
MIICkzCCAfygAwIBAgIBFDANBgkqhkiG9w0BAQUFADBFMQswCQYDVQQGEwJBVTET
MBEGA1UECAwKU29tZS1TdGF0ZTEhMB8GA1UECgwYSW50ZXJuZXQgV2lkZ2l0cyBQ
dHkgTHRkMB4XDTE0MDYwNzE1MDcwOFoXDTI0MDYwNDE1MDcwOFowWjELMAkGA1UE
BhMCQVUxEzARBgNVBAgMClNvbWUtU3RhdGUxITAfBgNVBAoMGEludGVybmV0IFdp
ZGdpdHMgUHR5IEx0ZDETMBEGA1UEAwwKc2lnbmluZyBDQTCBnzANBgkqhkiG9w0B
AQEFAAOBjQAwgYkCgYEAylMm+er0G4pwwIwXF8SvaWF6Yo95gZ4WnCJcZCX6s769
0YSYewYYNZI6xkt3tJBhbeFu6b0Kcqf7J1GsxkNfuWBBp68o/2tiav9UFgaESJRO
Jv67K/Oyir6ioYjRTImOKWBBnxZVMVWGwJD0sF5jfRjY2fsK89+SkLF45i7ICRUC
AwEAAaN+MHwwHQYDVR0OBBYEFHBGSRvCcS7AUNNLGFiKxBAcrrNZMB8GA1UdIwQY
MBaAFJ9zEGFCEU2CyvD/N+kXwyDI2x5KMA8GA1UdEwEB/wQFMAMBAf8wCwYDVR0P
BAQDAgEGMBwGAyoDBAEB/wQSDBBTb21lIHJhbmRvbSBkYXRhMA0GCSqGSIb3DQEB
BQUAA4GBAI/xMMDwMxgvCbzMcEv1muV8M9c5Wq+8EPm0v861B2cmh7MxZ85BoyO6
UYUQ3UEt4Bago9AMiZLQqLypsnPKfgpLLP9m92F1Q/EHMmvsYXY1jE0I6BjUznU+
JR/MD2agxCXLavEE2q3m5wpi9KWI3spwEqEzBYXi6ieXrH3v+Auc
-----END CERTIFICATE-----
