Certificate:
    Data:
        Version: 3 (0x2)
        Serial Number: 22 (0x16)
    Signature Algorithm: sha1WithRSAEncryption
        Issuer: C=AU, ST=Some-State, O=Internet Widgits Pty Ltd
        Validity
            Not Before: Jun  7 20:30:46 2014 GMT
            Not After : Jun  4 20:30:46 2024 GMT
        Subject: C=AU, ST=Some-State, O=Internet Widgits Pty Ltd, CN=signing CA
        Subject Public Key Info:
            Public Key Algorithm: rsaEncryption
                Public-Key: (1024 bit)
                Modulus:
                    00:ca:53:26:f9:ea:f4:1b:8a:70:c0:8c:17:17:c4:
                    af:69:61:7a:62:8f:79:81:9e:16:9c:22:5c:64:25:
                    fa:b3:be:bd:d1:84:98:7b:06:18:35:92:3a:c6:4b:
                    77:b4:90:61:6d:e1:6e:e9:bd:0a:72:a7:fb:27:51:
                    ac:c6:43:5f:b9:60:41:a7:af:28:ff:6b:62:6a:ff:
                    54:16:06:84:48:94:4e:26:fe:bb:2b:f3:b2:8a:be:
                    a2:a1:88:d1:4c:89:8e:29:60:41:9f:16:55:31:55:
                    86:c0:90:f4:b0:5e:63:7d:18:d8:d9:fb:0a:f3:df:
                    92:90:b1:78:e6:2e:c8:09:15
                Exponent: 65537 (0x10001)
        X509v3 extensions:
            X509v3 Subject Key Identifier: 
                70:46:49:1B:C2:71:2E:C0:50:D3:4B:18:58:8A:C4:10:1C:AE:B3:59
            X509v3 Authority Key Identifier: 
                keyid:9F:73:10:61:42:11:4D:82:CA:F0:FF:37:E9:17:C3:20:C8:DB:1E:4A

            X509v3 Basic Constraints: critical
                CA:TRUE
            X509v3 Key Usage: critical
                Certificate Sign, CRL Sign
    Signature Algorithm: sha1WithRSAEncryption
         16:a1:47:40:d9:71:b8:ab:84:8f:f7:da:f3:53:cd:ad:a6:4d:
         d9:39:32:e9:d5:5c:6d:e3:45:05:00:1e:a3:45:28:c9:a1:c1:
         07:0e:3f:52:ba:70:18:4d:ee:89:5a:80:05:af:dd:24:d6:4a:
         b2:c2:2f:a4:2c:4d:2e:60:86:01:6b:07:8f:70:d8:6a:07:a6:
         4a:ce:b0:d0:4b:13:b5:a4:87:ac:ba:45:25:0a:8a:a2:a2:2f:
         59:dd:9c:94:d7:0d:1d:e1:23:44:99:d5:63:5b:46:35:e0:87:
         bb:cb:53:24:89:48:e1:5f:0c:d7:02:e2:15:97:37:b1:dd:0d:
         4e:bd
-----BEGIN CERTIFICATE-----
MIICeDCCAeGgAwIBAgIBFjANBgkqhkiG9w0BAQUFADBFMQswCQYDVQQGEwJBVTET
MBEGA1UECAwKU29tZS1TdGF0ZTEhMB8GA1UECgwYSW50ZXJuZXQgV2lkZ2l0cyBQ
dHkgTHRkMB4XDTE0MDYwNzIwMzA0NloXDTI0MDYwNDIwMzA0NlowWjELMAkGA1UE
BhMCQVUxEzARBgNVBAgMClNvbWUtU3RhdGUxITAfBgNVBAoMGEludGVybmV0IFdp
ZGdpdHMgUHR5IEx0ZDETMBEGA1UEAwwKc2lnbmluZyBDQTCBnzANBgkqhkiG9w0B
AQEFAAOBjQAwgYkCgYEAylMm+er0G4pwwIwXF8SvaWF6Yo95gZ4WnCJcZCX6s769
0YSYewYYNZI6xkt3tJBhbeFu6b0Kcqf7J1GsxkNfuWBBp68o/2tiav9UFgaESJRO
Jv67K/Oyir6ioYjRTImOKWBBnxZVMVWGwJD0sF5jfRjY2fsK89+SkLF45i7ICRUC
AwEAAaNjMGEwHQYDVR0OBBYEFHBGSRvCcS7AUNNLGFiKxBAcrrNZMB8GA1UdIwQY
MBaAFJ9zEGFCEU2CyvD/N+kXwyDI2x5KMA8GA1UdEwEB/wQFMAMBAf8wDgYDVR0P
AQH/BAQDAgEGMA0GCSqGSIb3DQEBBQUAA4GBABahR0DZcbirhI/32vNTza2mTdk5
MunVXG3jRQUAHqNFKMmhwQcOP1K6cBhN7olagAWv3STWSrLCL6QsTS5ghgFrB49w
2GoHpkrOsNBLE7Wkh6y6RSUKiqKiL1ndnJTXDR3hI0SZ1WNbRjXgh7vLUySJSOFf
DNcC4hWXN7HdDU69
-----END CERTIFICATE-----
