Certificate:
    Data:
        Version: 3 (0x2)
        Serial Number: 23 (0x17)
    Signature Algorithm: sha1WithRSAEncryption
        Issuer: C=AU, ST=Some-State, O=Internet Widgits Pty Ltd
        Validity
            Not Before: Jun  8 07:10:36 2014 GMT
            Not After : Jun  5 07:10:36 2024 GMT
        Subject: C=AU, ST=Some-State, O=Internet Widgits Pty Ltd, CN=signing CA
        Subject Public Key Info:
            Public Key Algorithm: rsaEncryption
                Public-Key: (1024 bit)
                Modulus:
                    00:ca:53:26:f9:ea:f4:1b:8a:70:c0:8c:17:17:c4:
                    af:69:61:7a:62:8f:79:81:9e:16:9c:22:5c:64:25:
                    fa:b3:be:bd:d1:84:98:7b:06:18:35:92:3a:c6:4b:
                    77:b4:90:61:6d:e1:6e:e9:bd:0a:72:a7:fb:27:51:
                    ac:c6:43:5f:b9:60:41:a7:af:28:ff:6b:62:6a:ff:
                    54:16:06:84:48:94:4e:26:fe:bb:2b:f3:b2:8a:be:
                    a2:a1:88:d1:4c:89:8e:29:60:41:9f:16:55:31:55:
                    86:c0:90:f4:b0:5e:63:7d:18:d8:d9:fb:0a:f3:df:
                    92:90:b1:78:e6:2e:c8:09:15
                Exponent: 65537 (0x10001)
    Signature Algorithm: sha1WithRSAEncryption
         ae:5a:77:70:95:f8:37:1e:38:90:3d:ad:ed:23:d9:27:0f:f6:
         22:0d:7f:77:59:2d:62:84:97:12:88:10:48:2d:3e:35:1a:00:
         65:32:1d:b6:fb:90:3b:f8:01:88:8b:d1:8c:1b:da:d8:19:7a:
         a3:f2:29:28:c1:a2:f2:2b:a8:42:75:58:d5:4a:69:f0:3f:d4:
         70:49:73:6e:3f:6d:3f:ff:c1:dc:0c:90:1c:c4:08:f0:88:4b:
         6d:25:ab:db:b8:d4:6b:55:cf:23:28:79:11:c0:31:c9:a6:e9:
         85:61:5d:b5:cb:e2:fc:3c:aa:d5:6f:b1:bc:b4:17:7b:89:3f:
         9b:48
-----BEGIN CERTIFICATE-----
MIICEzCCAXygAwIBAgIBFzANBgkqhkiG9w0BAQUFADBFMQswCQYDVQQGEwJBVTET
MBEGA1UECAwKU29tZS1TdGF0ZTEhMB8GA1UECgwYSW50ZXJuZXQgV2lkZ2l0cyBQ
dHkgTHRkMB4XDTE0MDYwODA3MTAzNloXDTI0MDYwNTA3MTAzNlowWjELMAkGA1UE
BhMCQVUxEzARBgNVBAgMClNvbWUtU3RhdGUxITAfBgNVBAoMGEludGVybmV0IFdp
ZGdpdHMgUHR5IEx0ZDETMBEGA1UEAwwKc2lnbmluZyBDQTCBnzANBgkqhkiG9w0B
AQEFAAOBjQAwgYkCgYEAylMm+er0G4pwwIwXF8SvaWF6Yo95gZ4WnCJcZCX6s769
0YSYewYYNZI6xkt3tJBhbeFu6b0Kcqf7J1GsxkNfuWBBp68o/2tiav9UFgaESJRO
Jv67K/Oyir6ioYjRTImOKWBBnxZVMVWGwJD0sF5jfRjY2fsK89+SkLF45i7ICRUC
AwEAATANBgkqhkiG9w0BAQUFAAOBgQCuWndwlfg3HjiQPa3tI9knD/YiDX93WS1i
hJcSiBBILT41GgBlMh22+5A7+AGIi9GMG9rYGXqj8ikowaLyK6hCdVjVSmnwP9Rw
SXNuP20//8HcDJAcxAjwiEttJavbuNRrVc8jKHkRwDHJpumFYV21y+L8PKrVb7G8
tBd7iT+bSA==
-----END CERTIFICATE-----
