Certificate:
    Data:
        Version: 3 (0x2)
        Serial Number: 17 (0x11)
    Signature Algorithm: sha1WithRSAEncryption
        Issuer: C=AU, ST=Some-State, O=Internet Widgits Pty Ltd
        Validity
            Not Before: Jun  7 15:05:04 2014 GMT
            Not After : Jun  4 15:05:04 2024 GMT
        Subject: C=AU, ST=Some-State, O=Internet Widgits Pty Ltd, CN=signing CA
        Subject Public Key Info:
            Public Key Algorithm: rsaEncryption
                Public-Key: (1024 bit)
                Modulus:
                    00:ca:53:26:f9:ea:f4:1b:8a:70:c0:8c:17:17:c4:
                    af:69:61:7a:62:8f:79:81:9e:16:9c:22:5c:64:25:
                    fa:b3:be:bd:d1:84:98:7b:06:18:35:92:3a:c6:4b:
                    77:b4:90:61:6d:e1:6e:e9:bd:0a:72:a7:fb:27:51:
                    ac:c6:43:5f:b9:60:41:a7:af:28:ff:6b:62:6a:ff:
                    54:16:06:84:48:94:4e:26:fe:bb:2b:f3:b2:8a:be:
                    a2:a1:88:d1:4c:89:8e:29:60:41:9f:16:55:31:55:
                    86:c0:90:f4:b0:5e:63:7d:18:d8:d9:fb:0a:f3:df:
                    92:90:b1:78:e6:2e:c8:09:15
                Exponent: 65537 (0x10001)
        X509v3 extensions:
            X509v3 Subject Key Identifier: 
                70:46:49:1B:C2:71:2E:C0:50:D3:4B:18:58:8A:C4:10:1C:AE:B3:59
            X509v3 Authority Key Identifier: 
                keyid:9F:73:10:61:42:11:4D:82:CA:F0:FF:37:E9:17:C3:20:C8:DB:1E:4A

            X509v3 Basic Constraints: critical
                CA:TRUE
            X509v3 Key Usage: 
                Certificate Sign, CRL Sign
            X509v3 Extended Key Usage: 
                Time Stamping
    Signature Algorithm: sha1WithRSAEncryption
         a4:df:66:b2:ac:06:4d:0a:2d:68:77:8e:a0:cd:10:cb:de:f5:
         38:46:99:b8:ee:2e:cb:e0:56:c7:67:4a:8b:a9:28:1b:9d:50:
         bc:c9:c2:7f:98:45:17:2a:cf:f1:be:2b:bc:e9:03:e8:b7:97:
         d6:d5:15:d2:87:1f:03:8b:02:b3:8f:62:5d:55:7e:27:4c:c9:
         a7:bd:ed:5d:e2:c6:fc:d5:d9:88:cc:b0:71:c9:36:61:d7:d8:
         28:95:e7:45:e3:7e:e9:d5:5f:af:1f:a0:51:02:34:b9:21:19:
         b0:7b:d5:c5:8e:72:97:33:cc:96:14:93:ef:b3:95:db:c0:d0:
         57:0b
-----BEGIN CERTIFICATE-----
MIICijCCAfOgAwIBAgIBETANBgkqhkiG9w0BAQUFADBFMQswCQYDVQQGEwJBVTET
MBEGA1UECAwKU29tZS1TdGF0ZTEhMB8GA1UECgwYSW50ZXJuZXQgV2lkZ2l0cyBQ
dHkgTHRkMB4XDTE0MDYwNzE1MDUwNFoXDTI0MDYwNDE1MDUwNFowWjELMAkGA1UE
BhMCQVUxEzARBgNVBAgMClNvbWUtU3RhdGUxITAfBgNVBAoMGEludGVybmV0IFdp
ZGdpdHMgUHR5IEx0ZDETMBEGA1UEAwwKc2lnbmluZyBDQTCBnzANBgkqhkiG9w0B
AQEFAAOBjQAwgYkCgYEAylMm+er0G4pwwIwXF8SvaWF6Yo95gZ4WnCJcZCX6s769
0YSYewYYNZI6xkt3tJBhbeFu6b0Kcqf7J1GsxkNfuWBBp68o/2tiav9UFgaESJRO
Jv67K/Oyir6ioYjRTImOKWBBnxZVMVWGwJD0sF5jfRjY2fsK89+SkLF45i7ICRUC
AwEAAaN1MHMwHQYDVR0OBBYEFHBGSRvCcS7AUNNLGFiKxBAcrrNZMB8GA1UdIwQY
MBaAFJ9zEGFCEU2CyvD/N+kXwyDI2x5KMA8GA1UdEwEB/wQFMAMBAf8wCwYDVR0P
BAQDAgEGMBMGA1UdJQQMMAoGCCsGAQUFBwMIMA0GCSqGSIb3DQEBBQUAA4GBAKTf
ZrKsBk0KLWh3jqDNEMve9ThGmbjuLsvgVsdnSoupKBudULzJwn+YRRcqz/G+K7zp
A+i3l9bVFdKHHwOLArOPYl1VfidMyae97V3ixvzV2YjMsHHJNmHX2CiV50XjfunV
X68foFECNLkhGbB71cWOcpczzJYUk++zldvA0FcL
-----END CERTIFICATE-----
