Certificate:
    Data:
        Version: 3 (0x2)
        Serial Number: 7 (0x7)
    Signature Algorithm: sha1WithRSAEncryption
        Issuer: C=AU, ST=Some-State, O=Internet Widgits Pty Ltd, CN=signing CA
        Validity
            Not Before: Jun  7 15:14:08 2014 GMT
            Not After : Jun  4 15:14:08 2024 GMT
        Subject: C=AU, ST=Some-State, O=Internet Widgits Pty Ltd, CN=second.foobar.com
        Subject Public Key Info:
            Public Key Algorithm: rsaEncryption
                Public-Key: (1024 bit)
                Modulus:
                    00:e4:13:e7:f0:97:87:62:5f:e2:cc:79:b2:55:77:
                    d7:c2:b8:b9:d3:51:b9:72:6f:15:13:b5:94:e7:54:
                    8e:c1:18:37:6c:d8:0b:90:5a:a4:5d:a5:0e:42:74:
                    4e:7e:ad:e9:34:37:a7:6d:e5:30:c6:41:7b:f8:85:
                    e9:61:84:cc:d8:80:f2:7f:af:6e:22:bc:2c:ce:27:
                    1f:4a:fd:36:bc:1c:9d:f5:5f:e9:b4:96:0f:88:31:
                    8f:a7:6d:38:54:a8:7e:2c:1c:1c:72:8c:2f:0b:0a:
                    71:6f:d2:d5:c6:ac:e9:e0:e9:7e:72:46:43:a0:00:
                    60:33:62:d7:7a:ff:1e:7f:77
                Exponent: 65537 (0x10001)
        X509v3 extensions:
            X509v3 Basic Constraints: critical
                CA:FALSE
            X509v3 Key Usage: 
                Digital Signature, Non Repudiation, Key Encipherment
            X509v3 Subject Key Identifier: 
                4A:F7:E8:EB:57:1B:AB:49:41:23:E8:02:64:23:83:23:17:0E:CA:05
            X509v3 Authority Key Identifier: 
                keyid:70:46:49:1B:C2:71:2E:C0:50:D3:4B:18:58:8A:C4:10:1C:AE:B3:59

            1.2.3.4: 
                ..Some random data
    Signature Algorithm: sha1WithRSAEncryption
         ad:f0:9c:da:6a:61:bd:5f:bd:bb:43:4c:c9:31:ca:07:6c:b0:
         49:1f:9d:f0:72:b7:58:f8:91:a3:c5:d3:9a:46:c7:c7:ad:50:
         7f:2c:05:c0:e2:ba:82:a7:22:2b:33:3a:60:87:dd:c7:18:01:
         52:13:c4:da:63:88:65:cf:a2:a2:db:7f:83:85:11:94:12:82:
         d2:d5:91:01:40:7c:9b:8a:a7:33:e7:e0:ab:39:de:b6:ee:56:
         49:50:f8:b5:e7:f0:50:3e:96:e1:ea:5d:5b:00:26:c3:1b:13:
         bc:12:da:35:b7:33:f0:cc:bc:ca:b1:1a:79:69:b3:34:22:35:
         31:7f
-----BEGIN CERTIFICATE-----
MIICqTCCAhKgAwIBAgIBBzANBgkqhkiG9w0BAQUFADBaMQswCQYDVQQGEwJBVTET
MBEGA1UECAwKU29tZS1TdGF0ZTEhMB8GA1UECgwYSW50ZXJuZXQgV2lkZ2l0cyBQ
dHkgTHRkMRMwEQYDVQQDDApzaWduaW5nIENBMB4XDTE0MDYwNzE1MTQwOFoXDTI0
MDYwNDE1MTQwOFowYTELMAkGA1UEBhMCQVUxEzARBgNVBAgMClNvbWUtU3RhdGUx
ITAfBgNVBAoMGEludGVybmV0IFdpZGdpdHMgUHR5IEx0ZDEaMBgGA1UEAwwRc2Vj
b25kLmZvb2Jhci5jb20wgZ8wDQYJKoZIhvcNAQEBBQADgY0AMIGJAoGBAOQT5/CX
h2Jf4sx5slV318K4udNRuXJvFRO1lOdUjsEYN2zYC5BapF2lDkJ0Tn6t6TQ3p23l
MMZBe/iF6WGEzNiA8n+vbiK8LM4nH0r9NrwcnfVf6bSWD4gxj6dtOFSofiwcHHKM
LwsKcW/S1cas6eDpfnJGQ6AAYDNi13r/Hn93AgMBAAGjeDB2MAwGA1UdEwEB/wQC
MAAwCwYDVR0PBAQDAgXgMB0GA1UdDgQWBBRK9+jrVxurSUEj6AJkI4MjFw7KBTAf
BgNVHSMEGDAWgBRwRkkbwnEuwFDTSxhYisQQHK6zWTAZBgMqAwQEEgwQU29tZSBy
YW5kb20gZGF0YTANBgkqhkiG9w0BAQUFAAOBgQCt8JzaamG9X727Q0zJMcoHbLBJ
H53wcrdY+JGjxdOaRsfHrVB/LAXA4rqCpyIrMzpgh93HGAFSE8TaY4hlz6Ki23+D
hRGUEoLS1ZEBQHybiqcz5+CrOd627lZJUPi15/BQPpbh6l1bACbDGxO8Eto1tzPw
zLzKsRp5abM0IjUxfw==
-----END CERTIFICATE-----
