Certificate:
    Data:
        Version: 3 (0x2)
        Serial Number: 10 (0xa)
    Signature Algorithm: sha1WithRSAEncryption
        Issuer: C=AU, ST=Some-State, O=Internet Widgits Pty Ltd, CN=signing CA
        Validity
            Not Before: Jun  7 20:19:45 2014 GMT
            Not After : Jun  4 20:19:45 2024 GMT
        Subject: C=AU, ST=Some-State, O=Internet Widgits Pty Ltd
        Subject Public Key Info:
            Public Key Algorithm: rsaEncryption
                Public-Key: (1024 bit)
                Modulus:
                    00:e4:13:e7:f0:97:87:62:5f:e2:cc:79:b2:55:77:
                    d7:c2:b8:b9:d3:51:b9:72:6f:15:13:b5:94:e7:54:
                    8e:c1:18:37:6c:d8:0b:90:5a:a4:5d:a5:0e:42:74:
                    4e:7e:ad:e9:34:37:a7:6d:e5:30:c6:41:7b:f8:85:
                    e9:61:84:cc:d8:80:f2:7f:af:6e:22:bc:2c:ce:27:
                    1f:4a:fd:36:bc:1c:9d:f5:5f:e9:b4:96:0f:88:31:
                    8f:a7:6d:38:54:a8:7e:2c:1c:1c:72:8c:2f:0b:0a:
                    71:6f:d2:d5:c6:ac:e9:e0:e9:7e:72:46:43:a0:00:
                    60:33:62:d7:7a:ff:1e:7f:77
                Exponent: 65537 (0x10001)
        X509v3 extensions:
            X509v3 Basic Constraints: critical
                CA:FALSE
            X509v3 Key Usage: 
                Digital Signature, Non Repudiation, Key Encipherment
            X509v3 Subject Key Identifier: 
                4A:F7:E8:EB:57:1B:AB:49:41:23:E8:02:64:23:83:23:17:0E:CA:05
            X509v3 Authority Key Identifier: 
                keyid:70:46:49:1B:C2:71:2E:C0:50:D3:4B:18:58:8A:C4:10:1C:AE:B3:59

    Signature Algorithm: sha1WithRSAEncryption
         86:ff:aa:35:31:07:ab:76:8d:44:3a:a6:63:40:ce:ac:13:56:
         c0:90:12:e1:23:af:0d:b9:16:88:48:7b:a1:00:85:6c:b8:32:
         4d:ed:04:dc:32:05:e9:27:77:e1:1b:16:0b:8e:dc:23:fb:cd:
         fc:c7:63:27:35:bd:69:4d:45:ae:ab:b9:06:bb:a1:5e:b5:7e:
         89:72:cc:fe:3e:90:3c:09:bc:e1:1c:b0:bf:c6:d2:40:61:a7:
         d6:20:9b:cd:e9:f5:d6:09:f3:1e:ee:6b:6e:d2:31:6e:0d:15:
         8d:dd:9d:f7:8e:d9:96:df:42:7e:e2:0f:0d:37:f4:a8:ef:79:
         c1:88
-----BEGIN CERTIFICATE-----
MIICcjCCAdugAwIBAgIBCjANBgkqhkiG9w0BAQUFADBaMQswCQYDVQQGEwJBVTET
MBEGA1UECAwKU29tZS1TdGF0ZTEhMB8GA1UECgwYSW50ZXJuZXQgV2lkZ2l0cyBQ
dHkgTHRkMRMwEQYDVQQDDApzaWduaW5nIENBMB4XDTE0MDYwNzIwMTk0NVoXDTI0
MDYwNDIwMTk0NVowRTELMAkGA1UEBhMCQVUxEzARBgNVBAgMClNvbWUtU3RhdGUx
ITAfBgNVBAoMGEludGVybmV0IFdpZGdpdHMgUHR5IEx0ZDCBnzANBgkqhkiG9w0B
AQEFAAOBjQAwgYkCgYEA5BPn8JeHYl/izHmyVXfXwri501G5cm8VE7WU51SOwRg3
bNgLkFqkXaUOQnROfq3pNDenbeUwxkF7+IXpYYTM2IDyf69uIrwszicfSv02vByd
9V/ptJYPiDGPp204VKh+LBwccowvCwpxb9LVxqzp4Ol+ckZDoABgM2LXev8ef3cC
AwEAAaNdMFswDAYDVR0TAQH/BAIwADALBgNVHQ8EBAMCBeAwHQYDVR0OBBYEFEr3
6OtXG6tJQSPoAmQjgyMXDsoFMB8GA1UdIwQYMBaAFHBGSRvCcS7AUNNLGFiKxBAc
rrNZMA0GCSqGSIb3DQEBBQUAA4GBAIb/qjUxB6t2jUQ6pmNAzqwTVsCQEuEjrw25
FohIe6EAhWy4Mk3tBNwyBeknd+EbFguO3CP7zfzHYyc1vWlNRa6ruQa7oV61foly
zP4+kDwJvOEcsL/G0kBhp9Ygm83p9dYJ8x7ua27SMW4NFY3dnfeO2ZbfQn7iDw03
9KjvecGI
-----END CERTIFICATE-----
