Certificate:
    Data:
        Version: 3 (0x2)
        Serial Number: 3 (0x3)
    Signature Algorithm: sha1WithRSAEncryption
        Issuer: C=AU, ST=Some-State, O=Internet Widgits Pty Ltd, CN=signing CA
        Validity
            Not Before: Jun  7 15:11:22 2014 GMT
            Not After : Jun  4 15:11:22 2024 GMT
        Subject: C=AU, ST=Some-State, O=Internet Widgits Pty Ltd, CN=second.foobar.com
        Subject Public Key Info:
            Public Key Algorithm: rsaEncryption
                Public-Key: (1024 bit)
                Modulus:
                    00:e4:13:e7:f0:97:87:62:5f:e2:cc:79:b2:55:77:
                    d7:c2:b8:b9:d3:51:b9:72:6f:15:13:b5:94:e7:54:
                    8e:c1:18:37:6c:d8:0b:90:5a:a4:5d:a5:0e:42:74:
                    4e:7e:ad:e9:34:37:a7:6d:e5:30:c6:41:7b:f8:85:
                    e9:61:84:cc:d8:80:f2:7f:af:6e:22:bc:2c:ce:27:
                    1f:4a:fd:36:bc:1c:9d:f5:5f:e9:b4:96:0f:88:31:
                    8f:a7:6d:38:54:a8:7e:2c:1c:1c:72:8c:2f:0b:0a:
                    71:6f:d2:d5:c6:ac:e9:e0:e9:7e:72:46:43:a0:00:
                    60:33:62:d7:7a:ff:1e:7f:77
                Exponent: 65537 (0x10001)
        X509v3 extensions:
            X509v3 Basic Constraints: critical
                CA:FALSE
            X509v3 Key Usage: 
                Digital Signature, Non Repudiation, Key Encipherment
            X509v3 Subject Key Identifier: 
                4A:F7:E8:EB:57:1B:AB:49:41:23:E8:02:64:23:83:23:17:0E:CA:05
            X509v3 Authority Key Identifier: 
                keyid:70:46:49:1B:C2:71:2E:C0:50:D3:4B:18:58:8A:C4:10:1C:AE:B3:59

            X509v3 Extended Key Usage: 
                Time Stamping
    Signature Algorithm: sha1WithRSAEncryption
         2e:95:20:c3:be:29:0f:f7:3c:eb:e3:02:e1:11:18:21:88:6f:
         16:d8:e1:04:4b:d8:56:80:4f:e2:78:c0:35:10:b4:0f:11:0d:
         3d:96:0a:77:aa:56:be:27:7c:53:4c:c4:e7:f2:42:9a:3f:c0:
         e5:8c:5e:9b:ff:c9:c2:13:d1:57:4a:9c:53:86:c2:c7:04:fa:
         0b:8d:ac:52:0a:d8:e3:5d:d5:a6:f3:c0:67:db:de:43:0b:fd:
         21:2a:7d:67:bd:de:f5:48:5a:f3:a5:d4:ed:18:4a:37:f9:c4:
         6f:6e:7c:ff:b4:4e:db:5a:7b:6d:92:79:68:5d:ce:74:a0:b9:
         96:38
-----BEGIN CERTIFICATE-----
MIICozCCAgygAwIBAgIBAzANBgkqhkiG9w0BAQUFADBaMQswCQYDVQQGEwJBVTET
MBEGA1UECAwKU29tZS1TdGF0ZTEhMB8GA1UECgwYSW50ZXJuZXQgV2lkZ2l0cyBQ
dHkgTHRkMRMwEQYDVQQDDApzaWduaW5nIENBMB4XDTE0MDYwNzE1MTEyMloXDTI0
MDYwNDE1MTEyMlowYTELMAkGA1UEBhMCQVUxEzARBgNVBAgMClNvbWUtU3RhdGUx
ITAfBgNVBAoMGEludGVybmV0IFdpZGdpdHMgUHR5IEx0ZDEaMBgGA1UEAwwRc2Vj
b25kLmZvb2Jhci5jb20wgZ8wDQYJKoZIhvcNAQEBBQADgY0AMIGJAoGBAOQT5/CX
h2Jf4sx5slV318K4udNRuXJvFRO1lOdUjsEYN2zYC5BapF2lDkJ0Tn6t6TQ3p23l
MMZBe/iF6WGEzNiA8n+vbiK8LM4nH0r9NrwcnfVf6bSWD4gxj6dtOFSofiwcHHKM
LwsKcW/S1cas6eDpfnJGQ6AAYDNi13r/Hn93AgMBAAGjcjBwMAwGA1UdEwEB/wQC
MAAwCwYDVR0PBAQDAgXgMB0GA1UdDgQWBBRK9+jrVxurSUEj6AJkI4MjFw7KBTAf
BgNVHSMEGDAWgBRwRkkbwnEuwFDTSxhYisQQHK6zWTATBgNVHSUEDDAKBggrBgEF
BQcDCDANBgkqhkiG9w0BAQUFAAOBgQAulSDDvikP9zzr4wLhERghiG8W2OEES9hW
gE/ieMA1ELQPEQ09lgp3qla+J3xTTMTn8kKaP8DljF6b/8nCE9FXSpxThsLHBPoL
jaxSCtjjXdWm88Bn295DC/0hKn1nvd71SFrzpdTtGEo3+cRvbnz/tE7bWnttknlo
Xc50oLmWOA==
-----END CERTIFICATE-----
